(dp1
S'email'
p2
(dp3
S'length'
p4
I512
sS'unique'
p5
I00
sS'sortable'
p6
I3
sS'sql'
p7
S'CHAR(512)'
p8
sS'notnull'
p9
I00
sS'type'
p10
S'string'
p11
ssS'email'
p12
(dp13
g4
I512
sg5
I00
sg6
I3
sg7
S'CHAR(512)'
p14
sg9
I00
sg10
g11
ssS'id'
p15
<<<<<<< HEAD
ssS'name'
p16
(dp17
=======
(dp16
>>>>>>> 9f068f0b2f75ed8295bf7993a9b2966ee49606fe
g4
I512
sg5
I00
sg6
<<<<<<< HEAD
I2
=======
I1
>>>>>>> 9f068f0b2f75ed8295bf7993a9b2966ee49606fe
sg7
S'INTEGER PRIMARY KEY AUTOINCREMENT'
p17
sg9
I00
sg10
S'id'
p18
ss.