(dp1
S'output'
p2
S"<class 'gluon.contrib.simplejson.decoder.JSONDecodeError'> No JSON object could be decoded: line 1 column 0 (char 0)"
p3
sS'layer'
p4
S'/home/hitesh96db/Documents/web2py/applications/ITWSII_StudentsMail/controllers/main.py'
p5
sS'code'
p6
S'def loginvalidate():\n#\treturn "email %s password %s" % ( request.vars["email"],request.vars["password"] )\n\timport mechanize\n\timport os\n\timport re\n\timport json\n\n\tbr = mechanize.Browser()\n\tbr.set_proxies({"ftp":"proxy.iiit.ac.in:8080","http":"proxy.iiit.ac.in:8080"})\n\tbr.set_handle_equiv(False)\n\tbr.set_handle_robots(False)\n\tbr.set_handle_refresh(False)\n\tbr.addheaders = [ (\'User-Agent\',\'Firefox\') ]\n\n\tbr.open("https://isas.iiit.ac.in/index.php")\n\tresponse1 = br.response()\n\t#print response1.geturl()\n\t#print response1.info()\n\n\tbr.form = list(br.forms())[0]\n\t#for control in br.form.controls:\n\t#       print control.name\n\n\n\tbr["StUdent"] = request.vars["email"]\n\tbr["password"] = request.vars["password"]\n\t#br["rno"]="2013"\n\t#br["grade"]="A"\n\n\tresponse1 = br.submit()\n\tf = open(\'isas.html\', \'w\')\n\tk = response1.read()\n\tf.write(k)\n\tf.close()\n\n\tf = open("isas.html","r")\n\tl = f.readlines()\n\tf = open("isas.html","r")\n\tdoc = f.read()\n\n\tstudentinfo = {}\n\n\tif "Incorrect" in doc:\n\t        studentinfo["name"] = "unknown"\n\t\treturn json.dumps(studentinfo)\n\tfor i in l:\n\t        if "Name" in i:\n \t               line1 = i\n\t        if "Batch" in i:\n\t                line2 = i\n\t                break\n\n\tline1 = line1.strip()\n\tline2 = line2.strip()\n\n\tpass2 = re.findall("<b>.{1,30}<\\/b\\>",line1)\n\tname = pass2[0][3:-4].lower().title()\n\trollno = pass2[1][3:-5]\n\n\tstudentinfo = {}\n\n\tstudentinfo["name"]=name;\n\tstudentinfo["rollno"]=rollno;\n\t\n\tpass2 = re.findall("<b>.{1,30}<\\/b\\>",line2)\n\tbatch = pass2[0][3:-4]\n\tno = pass2[1][3:-4]\n\n\tstudentinfo["batch"]=batch;\n\n\treturn json.dumps(studentinfo)\n\n\ndef loginmy():\n\tif len(request.vars) != 0:\n\t\tsession["name"] = "None"\n\t\treturn dict(log=request.vars["logout"])\n\treturn dict(log=0)\n\ndef passthru():\n#\tsession.secure()\n\tsession["name"] = request.vars["name"]\n\tsession["email"] = request.vars["email"]\n\treturn "proceed"\n\ndef getuser():\n\n\tname = session["name"]\n\temail = session["email"]\n\tc = db( db.student.email_id == email ).select()\n\tif len(c) == 0:\n\t\tdb.student.insert(email_id = email , name = name )\n\treturn "Added to Database!"\n\ndef mails():\t\n\tif session["name"] == "None":\n\t\tresponse.view = "main/pls.html"\n\t\treturn dict()\n\treturn dict()\n\ndef getid():\n\tsubstr = request.vars["id"]\n\tl = len(substr)\n\trows = db(db.student.email_id[:l] == substr ).select()\n\ts = ""\n\tfor row in rows:\n\t\tif s == "":\n\t\t\ts = row.email_id\t\n\t\telse:\n\t\t\ts = s+" "+row.email_id\n\treturn str(s)\n\ndef add_TA():\n        TA = {\'anish.shankar\':\'Anish Shankar\', \'anurag.soni\':\'Anurag Soni\', \'madhavan.chetlur\':\'Madhavan Malolan\', \'rajeshkumar.gupta\':\'Rajeshkumar Gupta\', \'ayush.minocha\':\'Ayush Minocha\', \'vineet.kumar\':\'Vineet Kumar\', \'ankush.jain\':\'Ankush Jain\', \'mayank.g\':\'Mayank Gupta\', \'swapna.kidambi\':\'Swapna Kidambi\', \'vishrut.mehta\':\'Vishrut Mehta\', \'gaurav.mishra\':\'Gaurav Mishra\'}\n        for i in TA:\n                c = db(db.student.email_id == i).select();\n                if(len(c) == 0):\n                        db.student.insert(email_id=i, name=TA[i]);\n\n        d = {}\n        rows = db(db.student).select();\n        for row in rows:\n                d[row.email_id] = row.name;\n\n        return "Added TAs"\n\ndef send():\n\n\timport time\n\n        sent_time = time.strftime("%H:%M:%S");\n        sent_date = time.strftime("%d-%m-%Y");\n       \n\timport gluon.contrib.simplejson\n        a = gluon.contrib.simplejson.loads(request.body.read())\n\t\t\n        c = db(db.student.email_id == a[\'id\']).select();\n        if(len(c) == 0):\n                return "Please enter a valid e-mail address.";\n        db.mail.insert(sender_name=a[\'sender_name\'],rec_email=a[\'id\'], sender_email=a[\'send_id\'], subject=a[\'sub\'],mail_message=a[\'msg\'], sent_date=sent_date, sent_time=sent_time, tag=a[\'tag\']);\n        rows = db(db.mail).select();\n        for row in rows:\n                if row.rec_email == a[\'id\']:\n                        b.append(row.id);\n        rows = db(db.student).select();\n        for row in rows:\n                if row.email_id == a[\'id\']:\n                        row.update_record(mails=b);\n        return "Mail Sent!"\n\ndef show():\n\timport json\n\tct=1\n        mails = {};\n        user = request.vars[\'id\'];\n        row = db(db.student.email_id == user).select(db.student.mails);\n        for i in row:\n                for j in i[\'mails\']:\n                   temp = {}\n                   temp[\'send_id\'] = j.sender_email\n                   temp[\'sub\'] = j.subject\n                   temp[\'msg\'] = j.mail_message\n                   temp[\'sent_date\'] = j.sent_date\n                   temp[\'sent_time\'] = j.sent_time\n                   temp[\'tag\'] = j.tag\n                   mails[j] = temp\n\t\t   ct += 1\n        return json.dumps(mails)\ndef drafts():\n\timport time, gluon.contrib.simplejson\n\timport json\n\n\tdate = time.strftime("%d-%m-%Y")\n        a = gluon.contrib.simplejson.loads(request.body.read())\n\n        receivers = {}\n        receivers = eval(a[\'receivers\'])\n\n\tdb.draftmail.insert(sender_name=a[\'sender_name\'],receivers=receivers, sender_email=a[\'send_id\'], subject=a[\'sub\'],mail_message=a[\'msg\'], made_date=date, tag=a[\'tag\'])\n\t\n\treturn "Message Saved to Drafts!"\t\n\ndef getdrafts():\n\t\n\timport time, gluon.contrib.simplejson\n\timport json\n\tsend_id = request.vars["email"]\n\t\n\trows = db( db.draftmail.sender_email == send_id ).select()\n\t\n\treturn str(rows)\n\nresponse._vars=response._caller(send)\n'
p7
sS'snapshot'
p8
(dp9
sS'traceback'
p10
S'Traceback (most recent call last):\n  File "/home/hitesh96db/Documents/web2py/gluon/restricted.py", line 220, in restricted\n    exec ccode in environment\n  File "/home/hitesh96db/Documents/web2py/applications/ITWSII_StudentsMail/controllers/main.py", line 193, in <module>\n  File "/home/hitesh96db/Documents/web2py/gluon/globals.py", line 385, in <lambda>\n    self._caller = lambda f: f()\n  File "/home/hitesh96db/Documents/web2py/applications/ITWSII_StudentsMail/controllers/main.py", line 135, in send\n    a = gluon.contrib.simplejson.loads(request.body.read())\n  File "/home/hitesh96db/Documents/web2py/gluon/contrib/simplejson/__init__.py", line 386, in loads\n    return _default_decoder.decode(s)\n  File "/home/hitesh96db/Documents/web2py/gluon/contrib/simplejson/decoder.py", line 403, in decode\n    obj, end = self.raw_decode(s, idx=_w(s, 0).end())\n  File "/home/hitesh96db/Documents/web2py/gluon/contrib/simplejson/decoder.py", line 421, in raw_decode\n    raise JSONDecodeError("No JSON object could be decoded", s, idx)\nJSONDecodeError: No JSON object could be decoded: line 1 column 0 (char 0)\n'
p11
s.