(dp1
S'output'
p2
S"<class 'urllib2.URLError'> <urlopen error [Errno 110] Connection timed out>"
p3
sS'layer'
p4
S'/home/raj/web2py/applications/itproject/controllers/main.py'
p5
sS'code'
p6
S'def loginvalidate():\n#\treturn "email %s password %s" % ( request.vars["email"],request.vars["password"] )\n\timport mechanize\n\timport os\n\timport re\n\timport json\n\n\tbr = mechanize.Browser()\n\tbr.set_proxies({"ftp":"proxy.iiit.ac.in:8080","http":"proxy.iiit.ac.in:8080"})\n\tbr.set_handle_equiv(False)\n\tbr.set_handle_robots(False)\n\tbr.set_handle_refresh(False)\n\tbr.addheaders = [ (\'User-Agent\',\'Firefox\') ]\n\n\tbr.open("https://isas.iiit.ac.in/index.php")\n\tresponse1 = br.response()\n\t#print response1.geturl()\n\t#print response1.info()\n\n\tbr.form = list(br.forms())[0]\n\t#for control in br.form.controls:\n\t#       print control.name\n\n\n\tbr["StUdent"] = request.vars["email"]\n\tbr["password"] = request.vars["password"]\n\t#br["rno"]="2013"\n\t#br["grade"]="A"\n\n\tresponse1 = br.submit()\n\tf = open(\'isas.html\', \'w\')\n\tk = response1.read()\n\tf.write(k)\n\tf.close()\n\n\tf = open("isas.html","r")\n\tl = f.readlines()\n\tf = open("isas.html","r")\n\tdoc = f.read()\n\n\tstudentinfo = {}\n\n\tif "Incorrect" in doc:\n\t        studentinfo["name"] = "unknown"\n\t\treturn json.dumps(studentinfo)\n\tfor i in l:\n\t        if "Name" in i:\n \t               line1 = i\n\t        if "Batch" in i:\n\t                line2 = i\n\t                break\n\n\tline1 = line1.strip()\n\tline2 = line2.strip()\n\n\tpass2 = re.findall("<b>.{1,30}<\\/b\\>",line1)\n\tname = pass2[0][3:-4].lower().title()\n\trollno = pass2[1][3:-5]\n\n\tstudentinfo = {}\n\n\tstudentinfo["name"]=name;\n\tstudentinfo["rollno"]=rollno;\n\t\n\tpass2 = re.findall("<b>.{1,30}<\\/b\\>",line2)\n\tbatch = pass2[0][3:-4]\n\tno = pass2[1][3:-4]\n\n\tstudentinfo["batch"]=batch;\n\n\treturn json.dumps(studentinfo)\n\n\ndef loginmy():\n\tif len(request.vars) != 0:\n\t\tsession.forget(response)\n\t\treturn dict(log=request.vars["logout"])\n\treturn dict(log=0)\n\ndef passthru():\n#\tsession.secure()\n\tsession["name"] = request.vars["name"]\n\tsession["email"] = request.vars["email"]\n\treturn "proceed"\n\ndef getuser():\n\n\tname = session["name"]\n\temail = session["email"]\n\tc = db( db.student.email_id == email ).select()\n\tif len(c) == 0:\n\t\tdb.student.insert(email_id = email , name = name )\n\treturn "Added to Database!"\n\ndef mails():\t\n\treturn dict()\n\ndef getid():\n\tsubstr = request.vars["id"]\n\tl = len(substr)\n\trows = db(db.student.email_id[:l] == substr ).select()\n\ts = ""\n\tfor row in rows:\n\t\tif s == "":\n\t\t\ts = row.email_id\t\n\t\telse:\n\t\t\ts = s+" "+row.email_id\n\treturn str(s)\n\ndef add_TA():\n        TA = {\'anish.shankar\':\'Anish Shankar\', \'anurag.soni\':\'Anurag Soni\', \'madhavan.chetlur\':\'Madhavan Malolan\', \'rajeshkumar.gupta\':\'Rajeshkumar Gupta\', \'ayush.minocha\':\'Ayush Minocha\', \'vineet.kumar\':\'Vineet Kumar\', \'ankush.jain\':\'Ankush Jain\', \'mayank.g\':\'Mayank Gupta\', \'swapna.kidambi\':\'Swapna Kidambi\', \'vishrut.mehta\':\'Vishrut Mehta\', \'gaurav.mishra\':\'Gaurav Mishra\'}\n        for i in TA:\n                c = db(db.student.email_id == i).select();\n                if(len(c) == 0):\n                        db.student.insert(email_id=i, name=TA[i]);\n\n        d = {}\n        rows = db(db.student).select();\n        for row in rows:\n                d[row.email_id] = row.name;\n\n        return "Added TAs"\n\ndef send():\n\n\timport time\n\n        sent_time = time.strftime("%H:%M:%S");\n        sent_date = time.strftime("%d-%m-%Y");\n       \n\timport gluon.contrib.simplejson\n        a = gluon.contrib.simplejson.loads(request.body.read())\n\t\t\n        c = db(db.student.email_id == a[\'id\']).select();\n        if(len(c) == 0):\n                return "Please enter a valid e-mail address.";\n        db.mail.insert(sender_name=a[\'sender_name\'],rec_email=a[\'id\'], sender_email=a[\'send_id\'], subject=a[\'sub\'],mail_message=a[\'msg\'], sent_date=sent_date, sent_time=sent_time, tag=a[\'tag\']);\n        rows = db(db.mail).select();\n        for row in rows:\n                if row.rec_email == a[\'id\']:\n                        b.append(row.id);\n        rows = db(db.student).select();\n        for row in rows:\n                if row.email_id == a[\'id\']:\n                        row.update_record(mails=b);\n        return "Mail Sent!"\n\ndef show():\n        mails = {};\n        user = request.vars[\'id\'];\n        row = db(db.student.email_id == user).select(db.student.mails);\n        for i in row:\n                for j in i[\'mails\']:\n                   temp = {}\n                   temp[\'send_id\'] = j.sender_email\n                   temp[\'sub\'] = j.subject\n                   temp[\'msg\'] = j.mail_message\n                   temp[\'sent_date\'] = j.sent_date\n                   temp[\'sent_time\'] = j.sent_time\n                   temp[\'tag\'] = j.tag\n                   mails[j] = temp;\n        return str(mails)\n\nresponse._vars=response._caller(loginvalidate)\n'
p7
sS'snapshot'
p8
(dp9
S'exception'
p10
(dp11
S'__module__'
p12
S"'urllib2'"
p13
sS'__getslice__'
p14
S"<method-wrapper '__getslice__' of URLError object>"
p15
sS'__str__'
p16
S"<bound method URLError.__str__ of URLError(error(110, 'Connection timed out'),)>"
p17
sS'__reduce__'
p18
S'<built-in method __reduce__ of URLError object>'
p19
sS'__dict__'
p20
S"{'reason': error(110, 'Connection timed out')}"
p21
sS'__sizeof__'
p22
S'<built-in method __sizeof__ of URLError object>'
p23
sS'__weakref__'
p24
S'None'
p25
sS'__init__'
p26
S"<bound method URLError.__init__ of URLError(error(110, 'Connection timed out'),)>"
p27
sS'__setattr__'
p28
S"<method-wrapper '__setattr__' of URLError object>"
p29
sS'__reduce_ex__'
p30
S'<built-in method __reduce_ex__ of URLError object>'
p31
sS'__new__'
p32
S'<built-in method __new__ of type object>'
p33
sS'errno'
p34
S'None'
p35
sS'__format__'
p36
S'<built-in method __format__ of URLError object>'
p37
sS'__class__'
p38
S"<class 'urllib2.URLError'>"
p39
sS'filename'
p40
S'None'
p41
sS'__doc__'
p42
S'None'
p43
sS'__getitem__'
p44
S"<method-wrapper '__getitem__' of URLError object>"
p45
sS'__setstate__'
p46
S'<built-in method __setstate__ of URLError object>'
p47
sS'__getattribute__'
p48
S"<method-wrapper '__getattribute__' of URLError object>"
p49
sS'args'
p50
S"(error(110, 'Connection timed out'),)"
p51
sS'reason'
p52
S"error(110, 'Connection timed out')"
p53
sS'__subclasshook__'
p54
S'<built-in method __subclasshook__ of type object>'
p55
sS'__unicode__'
p56
S'<built-in method __unicode__ of URLError object>'
p57
sS'strerror'
p58
S'None'
p59
sS'__delattr__'
p60
S"<method-wrapper '__delattr__' of URLError object>"
p61
sS'__repr__'
p62
S"<method-wrapper '__repr__' of URLError object>"
p63
sS'__hash__'
p64
S"<method-wrapper '__hash__' of URLError object>"
p65
ssS'evalue'
p66
S'<urlopen error [Errno 110] Connection timed out>'
p67
sS'request'
p68
cgluon.html
XML_unpickle
p69
(S's\x8cb\x00\x00<div><table><tr><td style="font-weight:bold;vertical-align:top">ajax</td><td valign="top">:</td><td><div>False</div></td></tr><tr><td style="font-weight:bold;vertical-align:top">application</td><td valign="top">:</td><td><div>itproject</div></td></tr><tr><td style="font-weight:bold;vertical-align:top">args</td><td valign="top">:</td><td><div><table></table></div></td></tr><tr><td style="font-weight:bold;vertical-align:top">body</td><td valign="top">:</td><td><div>&lt;open file &#x27;&lt;fdopen&gt;&#x27;, mode &#x27;w+b&#x27; at 0x7f5eb80d7c90&gt;</div></td></tr><tr><td style="font-weight:bold;vertical-align:top">cid</td><td valign="top">:</td><td><div>None</div></td></tr><tr><td style="font-weight:bold;vertical-align:top">client</td><td valign="top">:</td><td><div>127.0.0.1</div></td></tr><tr><td style="font-weight:bold;vertical-align:top">controller</td><td valign="top">:</td><td><div>main</div></td></tr><tr><td style="font-weight:bold;vertical-align:top">cookies</td><td valign="top">:</td><td><div><table><tr><td style="font-weight:bold;vertical-align:top">session_id_admin</td><td valign="top">:</td><td><div>127.0.0.1-d0fc9fb1-8d1e-4dc4-967f-264a9f20c549<table><tr><td style="font-weight:bold;vertical-align:top">comment</td><td valign="top">:</td><td><div></div></td></tr><tr><td style="font-weight:bold;vertical-align:top">domain</td><td valign="top">:</td><td><div></div></td></tr><tr><td style="font-weight:bold;vertical-align:top">expires</td><td valign="top">:</td><td><div></div></td></tr><tr><td style="font-weight:bold;vertical-align:top">httponly</td><td valign="top">:</td><td><div></div></td></tr><tr><td style="font-weight:bold;vertical-align:top">max-age</td><td valign="top">:</td><td><div></div></td></tr><tr><td style="font-weight:bold;vertical-align:top">path</td><td valign="top">:</td><td><div></div></td></tr><tr><td style="font-weight:bold;vertical-align:top">secure</td><td valign="top">:</td><td><div></div></td></tr><tr><td style="font-weight:bold;vertical-align:top">version</td><td valign="top">:</td><td><div></div></td></tr></table></div></td></tr><tr><td style="font-weight:bold;vertical-align:top">session_id_itproject</td><td valign="top">:</td><td><div>127.0.0.1-1a4b343b-381e-46c7-b3d9-c1edce8be7b2<table><tr><td style="font-weight:bold;vertical-align:top">comment</td><td valign="top">:</td><td><div></div></td></tr><tr><td style="font-weight:bold;vertical-align:top">domain</td><td valign="top">:</td><td><div></div></td></tr><tr><td style="font-weight:bold;vertical-align:top">expires</td><td valign="top">:</td><td><div></div></td></tr><tr><td style="font-weight:bold;vertical-align:top">httponly</td><td valign="top">:</td><td><div></div></td></tr><tr><td style="font-weight:bold;vertical-align:top">max-age</td><td valign="top">:</td><td><div></div></td></tr><tr><td style="font-weight:bold;vertical-align:top">path</td><td valign="top">:</td><td><div></div></td></tr><tr><td style="font-weight:bold;vertical-align:top">secure</td><td valign="top">:</td><td><div></div></td></tr><tr><td style="font-weight:bold;vertical-align:top">version</td><td valign="top">:</td><td><div></div></td></tr></table></div></td></tr><tr><td style="font-weight:bold;vertical-align:top">session_id_itprojectold</td><td valign="top">:</td><td><div>127.0.0.1-8d7ff96f-96e9-4727-a8e0-964476af2908<table><tr><td style="font-weight:bold;vertical-align:top">comment</td><td valign="top">:</td><td><div></div></td></tr><tr><td style="font-weight:bold;vertical-align:top">domain</td><td valign="top">:</td><td><div></div></td></tr><tr><td style="font-weight:bold;vertical-align:top">expires</td><td valign="top">:</td><td><div></div></td></tr><tr><td style="font-weight:bold;vertical-align:top">httponly</td><td valign="top">:</td><td><div></div></td></tr><tr><td style="font-weight:bold;vertical-align:top">max-age</td><td valign="top">:</td><td><div></div></td></tr><tr><td style="font-weight:bold;vertical-align:top">path</td><td valign="top">:</td><td><div></div></td></tr><tr><td style="font-weight:bold;vertical-align:top">secure</td><td valign="top">:</td><td><div></div></td></tr><tr><td style="font-weight:bold;vertical-align:top">version</td><td valign="top">:</td><td><div></div></td></tr></table></div></td></tr><tr><td style="font-weight:bold;vertical-align:top">session_id_welcome</td><td valign="top">:</td><td><div>127.0.0.1-d41b9e8f-9591-491e-a414-0effb569cf57<table><tr><td style="font-weight:bold;vertical-align:top">comment</td><td valign="top">:</td><td><div></div></td></tr><tr><td style="font-weight:bold;vertical-align:top">domain</td><td valign="top">:</td><td><div></div></td></tr><tr><td style="font-weight:bold;vertical-align:top">expires</td><td valign="top">:</td><td><div></div></td></tr><tr><td style="font-weight:bold;vertical-align:top">httponly</td><td valign="top">:</td><td><div></div></td></tr><tr><td style="font-weight:bold;vertical-align:top">max-age</td><td valign="top">:</td><td><div></div></td></tr><tr><td style="font-weight:bold;vertical-align:top">path</td><td valign="top">:</td><td><div></div></td></tr><tr><td style="font-weight:bold;vertical-align:top">secure</td><td valign="top">:</td><td><div></div></td></tr><tr><td style="font-weight:bold;vertical-align:top">version</td><td valign="top">:</td><td><div></div></td></tr></table></div></td></tr></table></div></td></tr><tr><td style="font-weight:bold;vertical-align:top">env</td><td valign="top">:</td><td><div><table><tr><td style="font-weight:bold;vertical-align:top">app_folders</td><td valign="top">:</td><td><div>set([&#x27;/home/raj/web2py/applications/itprojectold/&#x27;, &#x27;/home/raj/web2py/applications/admin/&#x27;, &#x27;/home/raj/web2py/applications/itproject/&#x27;, &#x27;/home/raj/web2py/applications/welcome/&#x27;])</div></td></tr><tr><td style="font-weight:bold;vertical-align:top">applications_parent</td><td valign="top">:</td><td><div>/home/raj/web2py</div></td></tr><tr><td style="font-weight:bold;vertical-align:top">cmd_args</td><td valign="top">:</td><td><div><table></table></div></td></tr><tr><td style="font-weight:bold;vertical-align:top">cmd_options</td><td valign="top">:</td><td><div>&lt;Values at 0x1b85d40: {&#x27;verbose&#x27;: False, &#x27;ip&#x27;: &#x27;127.0.0.1&#x27;, &#x27;with_scheduler&#x27;: False, &#x27;ips&#x27;: [], &#x27;shutdown_timeout&#x27;: 5, &#x27;taskbar&#x27;: False, &#x27;port&#x27;: 8000, &#x27;maxthreads&#x27;: None, &#x27;softcron&#x27;: False, &#x27;server_name&#x27;: &#x27;raj-Inspiron-3537&#x27;, &#x27;bpython&#x27;: False, &#x27;nogui&#x27;: False, &#x27;pid_filename&#x27;: &#x27;httpserver.pid&#x27;, &#x27;extcron&#x27;: False, &#x27;runcron&#x27;: False, &#x27;run_system_tests&#x27;: False, &#x27;test&#x27;: None, &#x27;folder&#x27;: &#x27;/home/raj/web2py&#x27;, &#x27;config&#x27;: &#x27;&#x27;, &#x27;minthreads&#x27;: None, &#x27;winservice&#x27;: &#x27;&#x27;, &#x27;shell&#x27;: None, &#x27;run&#x27;: &#x27;&#x27;, &#x27;log_filename&#x27;: &#x27;httpserver.log&#x27;, &#x27;debuglevel&#x27;: 30, &#x27;args&#x27;: [&#x27;&#x27;], &#x27;socket_timeout&#x27;: 5, &#x27;ssl_ca_certificate&#x27;: None, &#x27;scheduler&#x27;: None, &#x27;profiler_filename&#x27;: None, &#x27;ssl_private_key&#x27;: &#x27;&#x27;, &#x27;scheduler_groups&#x27;: None, &#x27;password&#x27;: &#x27;&lt;ask&gt;&#x27;, &#x27;request_queue_size&#x27;: 5, &#x27;ssl_certificate&#x27;: &#x27;&#x27;, &#x27;cronjob&#x27;: False, &#x27;numthreads&#x27;: None, &#x27;quiet&#x27;: False, &#x27;interfaces&#x27;: None, &#x27;import_models&#x27;: False, &#x27;timeout&#x27;: 10, &#x27;plain&#x27;: False, &#x27;nobanner&#x27;: False}&gt;</div></td></tr><tr><td style="font-weight:bold;vertical-align:top">content_length</td><td valign="top">:</td><td><div>40</div></td></tr><tr><td style="font-weight:bold;vertical-align:top">content_type</td><td valign="top">:</td><td><div>application/x-www-form-urlencoded; charset=UTF-8</div></td></tr><tr><td style="font-weight:bold;vertical-align:top">db_sessions</td><td valign="top">:</td><td><div>set([])</div></td></tr><tr><td style="font-weight:bold;vertical-align:top">debugging</td><td valign="top">:</td><td><div>True</div></td></tr><tr><td style="font-weight:bold;vertical-align:top">gluon_parent</td><td valign="top">:</td><td><div>/home/raj/web2py</div></td></tr><tr><td style="font-weight:bold;vertical-align:top">http_accept</td><td valign="top">:</td><td><div>text/html,application/xhtml+xml,application/xml;q=0.9,*/*;q=0.8</div></td></tr><tr><td style="font-weight:bold;vertical-align:top">http_accept_encoding</td><td valign="top">:</td><td><div>gzip, deflate</div></td></tr><tr><td style="font-weight:bold;vertical-align:top">http_accept_language</td><td valign="top">:</td><td><div>en-US,en;q=0.5</div></td></tr><tr><td style="font-weight:bold;vertical-align:top">http_cache_control</td><td valign="top">:</td><td><div>no-cache</div></td></tr><tr><td style="font-weight:bold;vertical-align:top">http_connection</td><td valign="top">:</td><td><div>keep-alive</div></td></tr><tr><td style="font-weight:bold;vertical-align:top">http_content_length</td><td valign="top">:</td><td><div>40</div></td></tr><tr><td style="font-weight:bold;vertical-align:top">http_content_type</td><td valign="top">:</td><td><div>application/x-www-form-urlencoded; charset=UTF-8</div></td></tr><tr><td style="font-weight:bold;vertical-align:top">http_cookie</td><td valign="top">:</td><td><div>session_id_itproject=127.0.0.1-1a4b343b-381e-46c7-b3d9-c1edce8be7b2; session_id_welcome=127.0.0.1-d41b9e8f-9591-491e-a414-0effb569cf57; session_id_admin=127.0.0.1-d0fc9fb1-8d1e-4dc4-967f-264a9f20c549; session_id_itprojectold=127.0.0.1-8d7ff96f-96e9-4727-a8e0-964476af2908</div></td></tr><tr><td style="font-weight:bold;vertical-align:top">http_host</td><td valign="top">:</td><td><div>127.0.0.1:8000</div></td></tr><tr><td style="font-weight:bold;vertical-align:top">http_pragma</td><td valign="top">:</td><td><div>no-cache</div></td></tr><tr><td style="font-weight:bold;vertical-align:top">http_referer</td><td valign="top">:</td><td><div>http://127.0.0.1:8000/itproject/main/loginmy</div></td></tr><tr><td style="font-weight:bold;vertical-align:top">http_user_agent</td><td valign="top">:</td><td><div>Mozilla/5.0 (X11; Ubuntu; Linux x86_64; rv:24.0) Gecko/20100101 Firefox/24.0</div></td></tr><tr><td style="font-weight:bold;vertical-align:top">is_jython</td><td valign="top">:</td><td><div>False</div></td></tr><tr><td style="font-weight:bold;vertical-align:top">is_pypy</td><td valign="top">:</td><td><div>False</div></td></tr><tr><td style="font-weight:bold;vertical-align:top">local_hosts</td><td valign="top">:</td><td><div><table><tr><td><div>::1</div></td></tr><tr><td><div>127.0.1.1</div></td></tr><tr><td><div>raj-Inspiron-3537</div></td></tr><tr><td><div>::ffff:127.0.0.1</div></td></tr><tr><td><div>127.0.0.1</div></td></tr></table></div></td></tr><tr><td style="font-weight:bold;vertical-align:top">path_info</td><td valign="top">:</td><td><div>/itproject/main/loginvalidate</div></td></tr><tr><td style="font-weight:bold;vertical-align:top">query_string</td><td valign="top">:</td><td><div></div></td></tr><tr><td style="font-weight:bold;vertical-align:top">remote_addr</td><td valign="top">:</td><td><div>127.0.0.1</div></td></tr><tr><td style="font-weight:bold;vertical-align:top">remote_port</td><td valign="top">:</td><td><div>47607</div></td></tr><tr><td style="font-weight:bold;vertical-align:top">request_method</td><td valign="top">:</td><td><div>POST</div></td></tr><tr><td style="font-weight:bold;vertical-align:top">request_uri</td><td valign="top">:</td><td><div>/itproject/main/loginvalidate</div></td></tr><tr><td style="font-weight:bold;vertical-align:top">script_name</td><td valign="top">:</td><td><div></div></td></tr><tr><td style="font-weight:bold;vertical-align:top">server_name</td><td valign="top">:</td><td><div>raj-Inspiron-3537</div></td></tr><tr><td style="font-weight:bold;vertical-align:top">server_port</td><td valign="top">:</td><td><div>8000</div></td></tr><tr><td style="font-weight:bold;vertical-align:top">server_protocol</td><td valign="top">:</td><td><div>HTTP/1.1</div></td></tr><tr><td style="font-weight:bold;vertical-align:top">server_software</td><td valign="top">:</td><td><div>Rocket 1.2.6</div></td></tr><tr><td style="font-weight:bold;vertical-align:top">web2py_path</td><td valign="top">:</td><td><div>/home/raj/web2py</div></td></tr><tr><td style="font-weight:bold;vertical-align:top">web2py_version</td><td valign="top">:</td><td><div><table><tr><td><div>2</div></td></tr><tr><td><div>4</div></td></tr><tr><td><div>2</div></td></tr><tr><td><div>stable</div></td></tr><tr><td><div>datetime.datetime(2013, 3, 4, 3, 26, 21)</div></td></tr></table></div></td></tr><tr><td style="font-weight:bold;vertical-align:top">wsgi_errors</td><td valign="top">:</td><td><div>&lt;open file &#x27;&lt;stderr&gt;&#x27;, mode &#x27;w&#x27; at 0x7f5eef3091e0&gt;</div></td></tr><tr><td style="font-weight:bold;vertical-align:top">wsgi_file_wrapper</td><td valign="top">:</td><td><div>&lt;class wsgiref.util.FileWrapper at 0x1b570b8&gt;</div></td></tr><tr><td style="font-weight:bold;vertical-align:top">wsgi_input</td><td valign="top">:</td><td><div>&lt;socket._fileobject object at 0x7f5eb0371ad0&gt;</div></td></tr><tr><td style="font-weight:bold;vertical-align:top">wsgi_multiprocess</td><td valign="top">:</td><td><div>False</div></td></tr><tr><td style="font-weight:bold;vertical-align:top">wsgi_multithread</td><td valign="top">:</td><td><div>True</div></td></tr><tr><td style="font-weight:bold;vertical-align:top">wsgi_run_once</td><td valign="top">:</td><td><div>False</div></td></tr><tr><td style="font-weight:bold;vertical-align:top">wsgi_url_scheme</td><td valign="top">:</td><td><div>http</div></td></tr><tr><td style="font-weight:bold;vertical-align:top">wsgi_version</td><td valign="top">:</td><td><div><table><tr><td><div>1</div></td></tr><tr><td><div>0</div></td></tr></table></div></td></tr></table></div></td></tr><tr><td style="font-weight:bold;vertical-align:top">extension</td><td valign="top">:</td><td><div>html</div></td></tr><tr><td style="font-weight:bold;vertical-align:top">folder</td><td valign="top">:</td><td><div>/home/raj/web2py/applications/itproject/</div></td></tr><tr><td style="font-weight:bold;vertical-align:top">function</td><td valign="top">:</td><td><div>loginvalidate</div></td></tr><tr><td style="font-weight:bold;vertical-align:top">get_vars</td><td valign="top">:</td><td><div><table></table></div></td></tr><tr><td style="font-weight:bold;vertical-align:top">global_settings</td><td valign="top">:</td><td><div><table><tr><td style="font-weight:bold;vertical-align:top">app_folders</td><td valign="top">:</td><td><div>set([&#x27;/home/raj/web2py/applications/itprojectold/&#x27;, &#x27;/home/raj/web2py/applications/admin/&#x27;, &#x27;/home/raj/web2py/applications/itproject/&#x27;, &#x27;/home/raj/web2py/applications/welcome/&#x27;])</div></td></tr><tr><td style="font-weight:bold;vertical-align:top">applications_parent</td><td valign="top">:</td><td><div>/home/raj/web2py</div></td></tr><tr><td style="font-weight:bold;vertical-align:top">cmd_args</td><td valign="top">:</td><td><div><table></table></div></td></tr><tr><td style="font-weight:bold;vertical-align:top">cmd_options</td><td valign="top">:</td><td><div>&lt;Values at 0x1b85d40: {&#x27;verbose&#x27;: False, &#x27;ip&#x27;: &#x27;127.0.0.1&#x27;, &#x27;with_scheduler&#x27;: False, &#x27;ips&#x27;: [], &#x27;shutdown_timeout&#x27;: 5, &#x27;taskbar&#x27;: False, &#x27;port&#x27;: 8000, &#x27;maxthreads&#x27;: None, &#x27;softcron&#x27;: False, &#x27;server_name&#x27;: &#x27;raj-Inspiron-3537&#x27;, &#x27;bpython&#x27;: False, &#x27;nogui&#x27;: False, &#x27;pid_filename&#x27;: &#x27;httpserver.pid&#x27;, &#x27;extcron&#x27;: False, &#x27;runcron&#x27;: False, &#x27;run_system_tests&#x27;: False, &#x27;test&#x27;: None, &#x27;folder&#x27;: &#x27;/home/raj/web2py&#x27;, &#x27;config&#x27;: &#x27;&#x27;, &#x27;minthreads&#x27;: None, &#x27;winservice&#x27;: &#x27;&#x27;, &#x27;shell&#x27;: None, &#x27;run&#x27;: &#x27;&#x27;, &#x27;log_filename&#x27;: &#x27;httpserver.log&#x27;, &#x27;debuglevel&#x27;: 30, &#x27;args&#x27;: [&#x27;&#x27;], &#x27;socket_timeout&#x27;: 5, &#x27;ssl_ca_certificate&#x27;: None, &#x27;scheduler&#x27;: None, &#x27;profiler_filename&#x27;: None, &#x27;ssl_private_key&#x27;: &#x27;&#x27;, &#x27;scheduler_groups&#x27;: None, &#x27;password&#x27;: &#x27;&lt;ask&gt;&#x27;, &#x27;request_queue_size&#x27;: 5, &#x27;ssl_certificate&#x27;: &#x27;&#x27;, &#x27;cronjob&#x27;: False, &#x27;numthreads&#x27;: None, &#x27;quiet&#x27;: False, &#x27;interfaces&#x27;: None, &#x27;import_models&#x27;: False, &#x27;timeout&#x27;: 10, &#x27;plain&#x27;: False, &#x27;nobanner&#x27;: False}&gt;</div></td></tr><tr><td style="font-weight:bold;vertical-align:top">db_sessions</td><td valign="top">:</td><td><div>set([])</div></td></tr><tr><td style="font-weight:bold;vertical-align:top">debugging</td><td valign="top">:</td><td><div>True</div></td></tr><tr><td style="font-weight:bold;vertical-align:top">gluon_parent</td><td valign="top">:</td><td><div>/home/raj/web2py</div></td></tr><tr><td style="font-weight:bold;vertical-align:top">is_jython</td><td valign="top">:</td><td><div>False</div></td></tr><tr><td style="font-weight:bold;vertical-align:top">is_pypy</td><td valign="top">:</td><td><div>False</div></td></tr><tr><td style="font-weight:bold;vertical-align:top">local_hosts</td><td valign="top">:</td><td><div><table><tr><td><div>::1</div></td></tr><tr><td><div>127.0.1.1</div></td></tr><tr><td><div>raj-Inspiron-3537</div></td></tr><tr><td><div>::ffff:127.0.0.1</div></td></tr><tr><td><div>127.0.0.1</div></td></tr></table></div></td></tr><tr><td style="font-weight:bold;vertical-align:top">web2py_version</td><td valign="top">:</td><td><div><table><tr><td><div>2</div></td></tr><tr><td><div>4</div></td></tr><tr><td><div>2</div></td></tr><tr><td><div>stable</div></td></tr><tr><td><div>datetime.datetime(2013, 3, 4, 3, 26, 21)</div></td></tr></table></div></td></tr></table></div></td></tr><tr><td style="font-weight:bold;vertical-align:top">is_https</td><td valign="top">:</td><td><div>False</div></td></tr><tr><td style="font-weight:bold;vertical-align:top">is_local</td><td valign="top">:</td><td><div>True</div></td></tr><tr><td style="font-weight:bold;vertical-align:top">is_restful</td><td valign="top">:</td><td><div>False</div></td></tr><tr><td style="font-weight:bold;vertical-align:top">now</td><td valign="top">:</td><td><div>datetime.datetime(2014, 4, 6, 18, 25, 29, 319958)</div></td></tr><tr><td style="font-weight:bold;vertical-align:top">post_vars</td><td valign="top">:</td><td><div><table><tr><td style="font-weight:bold;vertical-align:top">email</td><td valign="top">:</td><td><div>raj.patel</div></td></tr><tr><td style="font-weight:bold;vertical-align:top">password</td><td valign="top">:</td><td><div>coolraj19950308</div></td></tr></table></div></td></tr><tr><td style="font-weight:bold;vertical-align:top">raw_args</td><td valign="top">:</td><td><div></div></td></tr><tr><td style="font-weight:bold;vertical-align:top">raw_extension</td><td valign="top">:</td><td><div>None</div></td></tr><tr><td style="font-weight:bold;vertical-align:top">url</td><td valign="top">:</td><td><div>/itproject/main/loginvalidate</div></td></tr><tr><td style="font-weight:bold;vertical-align:top">utcnow</td><td valign="top">:</td><td><div>datetime.datetime(2014, 4, 6, 12, 55, 29, 319977)</div></td></tr><tr><td style="font-weight:bold;vertical-align:top">uuid</td><td valign="top">:</td><td><div>itproject/127.0.0.1.2014-04-06.18-25-29.b0bb38f7-15ed-4316-8924-34d4770fb115</div></td></tr><tr><td style="font-weight:bold;vertical-align:top">vars</td><td valign="top">:</td><td><div><table><tr><td style="font-weight:bold;vertical-align:top">email</td><td valign="top">:</td><td><div>raj.patel</div></td></tr><tr><td style="font-weight:bold;vertical-align:top">password</td><td valign="top">:</td><td><div>coolraj19950308</div></td></tr></table></div></td></tr><tr><td style="font-weight:bold;vertical-align:top">wsgi</td><td valign="top">:</td><td><div><table><tr><td style="font-weight:bold;vertical-align:top">environ</td><td valign="top">:</td><td><div><table><tr><td style="font-weight:bold;vertical-align:top">CONTENT_LENGTH</td><td valign="top">:</td><td><div>40</div></td></tr><tr><td style="font-weight:bold;vertical-align:top">CONTENT_TYPE</td><td valign="top">:</td><td><div>application/x-www-form-urlencoded; charset=UTF-8</div></td></tr><tr><td style="font-weight:bold;vertical-align:top">HTTP_ACCEPT</td><td valign="top">:</td><td><div>text/html,application/xhtml+xml,application/xml;q=0.9,*/*;q=0.8</div></td></tr><tr><td style="font-weight:bold;vertical-align:top">HTTP_ACCEPT_ENCODING</td><td valign="top">:</td><td><div>gzip, deflate</div></td></tr><tr><td style="font-weight:bold;vertical-align:top">HTTP_ACCEPT_LANGUAGE</td><td valign="top">:</td><td><div>en-US,en;q=0.5</div></td></tr><tr><td style="font-weight:bold;vertical-align:top">HTTP_CACHE_CONTROL</td><td valign="top">:</td><td><div>no-cache</div></td></tr><tr><td style="font-weight:bold;vertical-align:top">HTTP_CONNECTION</td><td valign="top">:</td><td><div>keep-alive</div></td></tr><tr><td style="font-weight:bold;vertical-align:top">HTTP_CONTENT_LENGTH</td><td valign="top">:</td><td><div>40</div></td></tr><tr><td style="font-weight:bold;vertical-align:top">HTTP_CONTENT_TYPE</td><td valign="top">:</td><td><div>application/x-www-form-urlencoded; charset=UTF-8</div></td></tr><tr><td style="font-weight:bold;vertical-align:top">HTTP_COOKIE</td><td valign="top">:</td><td><div>session_id_itproject=127.0.0.1-1a4b343b-381e-46c7-b3d9-c1edce8be7b2; session_id_welcome=127.0.0.1-d41b9e8f-9591-491e-a414-0effb569cf57; session_id_admin=127.0.0.1-d0fc9fb1-8d1e-4dc4-967f-264a9f20c549; session_id_itprojectold=127.0.0.1-8d7ff96f-96e9-4727-a8e0-964476af2908</div></td></tr><tr><td style="font-weight:bold;vertical-align:top">HTTP_HOST</td><td valign="top">:</td><td><div>127.0.0.1:8000</div></td></tr><tr><td style="font-weight:bold;vertical-align:top">HTTP_PRAGMA</td><td valign="top">:</td><td><div>no-cache</div></td></tr><tr><td style="font-weight:bold;vertical-align:top">HTTP_REFERER</td><td valign="top">:</td><td><div>http://127.0.0.1:8000/itproject/main/loginmy</div></td></tr><tr><td style="font-weight:bold;vertical-align:top">HTTP_USER_AGENT</td><td valign="top">:</td><td><div>Mozilla/5.0 (X11; Ubuntu; Linux x86_64; rv:24.0) Gecko/20100101 Firefox/24.0</div></td></tr><tr><td style="font-weight:bold;vertical-align:top">PATH_INFO</td><td valign="top">:</td><td><div>/itproject/main/loginvalidate</div></td></tr><tr><td style="font-weight:bold;vertical-align:top">QUERY_STRING</td><td valign="top">:</td><td><div></div></td></tr><tr><td style="font-weight:bold;vertical-align:top">REMOTE_ADDR</td><td valign="top">:</td><td><div>127.0.0.1</div></td></tr><tr><td style="font-weight:bold;vertical-align:top">REMOTE_PORT</td><td valign="top">:</td><td><div>47607</div></td></tr><tr><td style="font-weight:bold;vertical-align:top">REQUEST_METHOD</td><td valign="top">:</td><td><div>POST</div></td></tr><tr><td style="font-weight:bold;vertical-align:top">REQUEST_URI</td><td valign="top">:</td><td><div>/itproject/main/loginvalidate</div></td></tr><tr><td style="font-weight:bold;vertical-align:top">SCRIPT_NAME</td><td valign="top">:</td><td><div></div></td></tr><tr><td style="font-weight:bold;vertical-align:top">SERVER_NAME</td><td valign="top">:</td><td><div>raj-Inspiron-3537</div></td></tr><tr><td style="font-weight:bold;vertical-align:top">SERVER_PORT</td><td valign="top">:</td><td><div>8000</div></td></tr><tr><td style="font-weight:bold;vertical-align:top">SERVER_PROTOCOL</td><td valign="top">:</td><td><div>HTTP/1.1</div></td></tr><tr><td style="font-weight:bold;vertical-align:top">SERVER_SOFTWARE</td><td valign="top">:</td><td><div>Rocket 1.2.6</div></td></tr><tr><td style="font-weight:bold;vertical-align:top">wsgi.errors</td><td valign="top">:</td><td><div>&lt;open file &#x27;&lt;stderr&gt;&#x27;, mode &#x27;w&#x27; at 0x7f5eef3091e0&gt;</div></td></tr><tr><td style="font-weight:bold;vertical-align:top">wsgi.file_wrapper</td><td valign="top">:</td><td><div>&lt;class wsgiref.util.FileWrapper at 0x1b570b8&gt;</div></td></tr><tr><td style="font-weight:bold;vertical-align:top">wsgi.input</td><td valign="top">:</td><td><div>&lt;open file &#x27;&lt;fdopen&gt;&#x27;, mode &#x27;w+b&#x27; at 0x7f5eb80d7c90&gt;</div></td></tr><tr><td style="font-weight:bold;vertical-align:top">wsgi.multiprocess</td><td valign="top">:</td><td><div>False</div></td></tr><tr><td style="font-weight:bold;vertical-align:top">wsgi.multithread</td><td valign="top">:</td><td><div>True</div></td></tr><tr><td style="font-weight:bold;vertical-align:top">wsgi.run_once</td><td valign="top">:</td><td><div>False</div></td></tr><tr><td style="font-weight:bold;vertical-align:top">wsgi.url_scheme</td><td valign="top">:</td><td><div>http</div></td></tr><tr><td style="font-weight:bold;vertical-align:top">wsgi.version</td><td valign="top">:</td><td><div>1</div></td></tr></table></div></td></tr></table></div></td></tr></table></div>'
tRp70
sS'frames'
p71
(lp72
(dp73
S'file'
p74
S'/home/raj/web2py/gluon/restricted.py'
p75
sS'dump'
p76
(dp77
S'environment'
p78
S"{'A': <class 'gluon.html.A'>, 'Auth': <class 'gluon.tools.Auth'>, 'B': <class 'gluon.html.B'>, 'BEAUTIFY': <class 'gluon.html.BEAUTIFY'>, 'BODY': <class 'gluon.html.BODY'>, 'BR': <class 'gluon.html.BR'>, 'BUTTON': <class 'gluon.html.BUTTON'>, 'CAT': <class 'gluon.html.CAT'>, 'CENTER': <class 'gluon.html.CENTER'>, 'CLEANUP': <class 'gluon.validators.CLEANUP'>, ...}"
p79
sS'ccode'
p80
S'<code object <module> at 0x7f5eb441bdb0, file "/...lications/itproject/controllers/main.py", line 1>'
p81
ssS'lnum'
p82
I212
sS'lines'
p83
(dp84
I207
S'    try:'
p85
sI208
S'        if isinstance(code, types.CodeType):'
p86
sI209
S'            ccode = code'
p87
sI210
S'        else:'
p88
sI211
S'            ccode = compile2(code, layer)'
p89
sI212
S'        exec ccode in environment'
p90
sI213
S'    except HTTP:'
p91
sI214
S'        raise'
p92
sI215
S'    except RestrictedError:'
p93
sI216
S'        # do not encapsulate (obfuscate) the original RestrictedError'
p94
ssS'call'
p95
S'(code=\'def loginvalidate():\\n#\\treturn "email %s password...\\n\\nresponse._vars=response._caller(loginvalidate)\\n\', environment={\'A\': <class \'gluon.html.A\'>, \'Auth\': <class \'gluon.tools.Auth\'>, \'B\': <class \'gluon.html.B\'>, \'BEAUTIFY\': <class \'gluon.html.BEAUTIFY\'>, \'BODY\': <class \'gluon.html.BODY\'>, \'BR\': <class \'gluon.html.BR\'>, \'BUTTON\': <class \'gluon.html.BUTTON\'>, \'CAT\': <class \'gluon.html.CAT\'>, \'CENTER\': <class \'gluon.html.CENTER\'>, \'CLEANUP\': <class \'gluon.validators.CLEANUP\'>, ...}, layer=\'/home/raj/web2py/applications/itproject/controllers/main.py\')'
p96
sS'func'
p97
S'restricted'
p98
sa(dp99
g74
S'/home/raj/web2py/applications/itproject/controllers/main.py'
p100
sg76
(dp101
sg82
I164
sg83
(dp102
I160
S"                   temp['tag'] = j.tag"
p103
sI161
S'                   mails[j] = temp;'
p104
sI162
S'        return str(mails)'
p105
sI153
S"                for j in i['mails']:"
p106
sI154
S'                   temp = {}'
p107
sI155
S"                   temp['send_id'] = j.sender_email"
p108
sI156
S"                   temp['sub'] = j.subject"
p109
sI157
S"                   temp['msg'] = j.mail_message"
p110
sI158
S"                   temp['sent_date'] = j.sent_date"
p111
sI159
S"                   temp['sent_time'] = j.sent_time"
p112
ssg95
S'()'
p113
sg97
S'<module>'
p114
sa(dp115
g74
S'/home/raj/web2py/gluon/globals.py'
p116
sg76
(dp117
S'self'
p118
S'undefined'
p119
sS'f'
S'<function loginvalidate>'
p120
ssg82
I193
sg83
(dp121
I192
S'        self._vars = None'
p122
sI193
S'        self._caller = lambda f: f()'
p123
sI194
S'        self._view_environment = None'
p124
sI195
S'        self._custom_commit = None'
p125
sI196
S'        self._custom_rollback = None'
p126
sI197
S''
sI188
S'        self.menu = []             # used by the default view layout'
p127
sI189
S'        self.files = []            # used by web2py_ajax.html'
p128
sI190
S'        self.generic_patterns = []  # patterns to allow generic views'
p129
sI191
S"        self.delimiters = ('{{', '}}')"
p130
ssg95
S'(f=<function loginvalidate>)'
p131
sg97
S'<lambda>'
p132
sa(dp133
g74
S'/home/raj/web2py/applications/itproject/controllers/main.py'
p134
sg76
(dp135
S'br.open'
p136
S'<bound method Browser.open of <mechanize._mechanize.Browser instance>>'
p137
sS'br'
p138
S'<mechanize._mechanize.Browser instance>'
p139
ssg82
I15
sg83
(dp140
I10
S'\tbr.set_handle_equiv(False)'
p141
sI11
S'\tbr.set_handle_robots(False)'
p142
sI12
S'\tbr.set_handle_refresh(False)'
p143
sI13
S"\tbr.addheaders = [ ('User-Agent','Firefox') ]"
p144
sI14
S''
sI15
S'\tbr.open("https://isas.iiit.ac.in/index.php")'
p145
sI16
S'\tresponse1 = br.response()'
p146
sI17
S'\t#print response1.geturl()'
p147
sI18
S'\t#print response1.info()'
p148
sI19
S''
ssg95
S'()'
p149
sg97
S'loginvalidate'
p150
sa(dp151
g74
S'/usr/local/lib/python2.7/dist-packages/mechanize-0.2.5-py2.7.egg/mechanize/_mechanize.py'
p152
sg76
(dp153
S'url'
p154
S"'https://isas.iiit.ac.in/index.php'"
p155
sS'data'
p156
S'None'
p157
sS'self'
p158
S'<mechanize._mechanize.Browser instance>'
p159
sS'self._mech_open'
p160
S'<bound method Browser._mech_open of <mechanize._mechanize.Browser instance>>'
p161
sS'timeout'
p162
S'<object object>'
p163
ssg82
I203
sg83
(dp164
I198
S'        """'
p165
sI199
S'        return self._mech_open(url, data, visit=False, timeout=timeout)'
p166
sI200
S''
sI201
S'    def open(self, url, data=None,'
p167
sI202
S'             timeout=_sockettimeout._GLOBAL_DEFAULT_TIMEOUT):'
p168
sI203
S'        return self._mech_open(url, data, timeout=timeout)'
p169
sI204
S''
sI205
S'    def _mech_open(self, url, data=None, update_history=True, visit=None,'
p170
sI206
S'                   timeout=_sockettimeout._GLOBAL_DEFAULT_TIMEOUT):'
p171
sI207
S'        try:'
p172
ssg95
S"(self=<mechanize._mechanize.Browser instance>, url='https://isas.iiit.ac.in/index.php', data=None, timeout=<object object>)"
p173
sg97
S'open'
p174
sa(dp175
g74
S'/usr/local/lib/python2.7/dist-packages/mechanize-0.2.5-py2.7.egg/mechanize/_mechanize.py'
p176
sg76
(dp177
S'self'
p178
S'<mechanize._mechanize.Browser instance>'
p179
sS'request'
p180
S'<mechanize._request.Request instance>'
p181
sS'UserAgentBase.open'
p182
S'<unbound method UserAgentBase.open>'
p183
sS'global UserAgentBase'
p184
S'<class mechanize._useragent.UserAgentBase>'
p185
sS'data'
p186
S'None'
p187
sS'response'
p188
g119
ssg82
I230
sg83
(dp189
I225
S'        if visit:'
p190
sI226
S'            self._visit_request(request, update_history)'
p191
sI227
S''
sI228
S'        success = True'
p192
sI229
S'        try:'
p193
sI230
S'            response = UserAgentBase.open(self, request, data)'
p194
sI231
S'        except urllib2.HTTPError, error:'
p195
sI232
S'            success = False'
p196
sI233
S'            if error.fp is None:  # not a response'
p197
sI234
S'                raise'
p198
ssg95
S"(self=<mechanize._mechanize.Browser instance>, url='https://isas.iiit.ac.in/index.php', data=None, update_history=True, visit=True, timeout=<object object>)"
p199
sg97
S'_mech_open'
p200
sa(dp201
g74
S'/usr/local/lib/python2.7/dist-packages/mechanize-0.2.5-py2.7.egg/mechanize/_opener.py'
p202
sg76
(dp203
S'urlopen'
p204
S'<unbound method OpenerDirector._open>'
p205
sS'self'
p206
S'<mechanize._mechanize.Browser instance>'
p207
sS'req'
p208
S'<mechanize._request.Request instance>'
p209
sS'data'
p210
S'None'
p211
sS'response'
p212
g119
ssg82
I193
sg83
(dp213
I192
S'        urlopen = _urllib2_fork.OpenerDirector._open'
p214
sI193
S'        response = urlopen(self, req, data)'
p215
sI194
S''
sI195
S'        # post-process response'
p216
sI196
S'        response_processors = set(self.process_response.get(req_scheme, []))'
p217
sI197
S'        response_processors.update(self._any_response)'
p218
sI188
S'                    req = meth(req)'
p219
sI189
S''
sI190
S'        # In Python >= 2.4, .open() supports processors already, so we must'
p220
sI191
S'        # call ._open() instead.'
p221
ssg95
S'(self=<mechanize._mechanize.Browser instance>, fullurl=<mechanize._request.Request instance>, data=None, timeout=<object object>)'
p222
sg97
g174
sa(dp223
g74
S'/usr/local/lib/python2.7/dist-packages/mechanize-0.2.5-py2.7.egg/mechanize/_urllib2_fork.py'
p224
sg76
(dp225
S'req'
p226
S'<mechanize._request.Request instance>'
p227
ssg82
I344
sg83
(dp228
I339
S'        if result:'
p229
sI340
S'            return result'
p230
sI341
S''
sI342
S'        protocol = req.get_type()'
p231
sI343
S'        result = self._call_chain(self.handle_open, protocol, protocol +'
p232
sI344
S"                                  '_open', req)"
p233
sI345
S'        if result:'
p234
sI346
S'            return result'
p235
sI347
S''
sI348
S"        return self._call_chain(self.handle_open, 'unknown',"
p236
ssg95
S'(self=<mechanize._mechanize.Browser instance>, req=<mechanize._request.Request instance>, data=None)'
p237
sg97
S'_open'
p238
sa(dp239
g74
S'/usr/local/lib/python2.7/dist-packages/mechanize-0.2.5-py2.7.egg/mechanize/_urllib2_fork.py'
p240
sg76
(dp241
S'args'
p242
S'(<mechanize._request.Request instance>,)'
p243
sS'result'
p244
g119
sS'func'
p245
S'<bound method HTTPSHandler.https_open of <mechanize._urllib2_fork.HTTPSHandler instance>>'
p246
ssg82
I332
sg83
(dp247
I327
S'        # could.  Otherwise, they return the response.'
p248
sI328
S'        handlers = chain.get(kind, ())'
p249
sI329
S'        for handler in handlers:'
p250
sI330
S'            func = getattr(handler, meth_name)'
p251
sI331
S''
sI332
S'            result = func(*args)'
p252
sI333
S'            if result is not None:'
p253
sI334
S'                return result'
p254
sI335
S''
sI336
S'    def _open(self, req, data=None):'
p255
ssg95
S"(self=<mechanize._mechanize.Browser instance>, chain={'file': [<mechanize._urllib2_fork.FileHandler instance>], 'ftp': [<mechanize._urllib2_fork.ProxyHandler instance>, <mechanize._urllib2_fork.FTPHandler instance>], 'http': [<mechanize._urllib2_fork.ProxyHandler instance>, <mechanize._urllib2_fork.HTTPHandler instance>], 'https': [<mechanize._urllib2_fork.HTTPSHandler instance>], 'unknown': [<mechanize._urllib2_fork.UnknownHandler instance>]}, kind='https', meth_name='https_open', *args=(<mechanize._request.Request instance>,))"
p256
sg97
S'_call_chain'
p257
sa(dp258
g74
S'/usr/local/lib/python2.7/dist-packages/mechanize-0.2.5-py2.7.egg/mechanize/_urllib2_fork.py'
p259
sg76
(dp260
S'conn_factory'
p261
S'<mechanize._urllib2_fork.HTTPSConnectionFactory instance>'
p262
sS'self'
p263
S'<mechanize._urllib2_fork.HTTPSHandler instance>'
p264
sS'req'
p265
S'<mechanize._request.Request instance>'
p266
sS'self.do_open'
p267
S'<bound method HTTPSHandler.do_open of <mechanize._urllib2_fork.HTTPSHandler instance>>'
p268
ssg82
I1170
sg83
(dp269
I1165
S'                key_file, cert_file = self.client_cert_manager.find_key_cert('
p270
sI1166
S'                    req.get_full_url())'
p271
sI1167
S'                conn_factory = HTTPSConnectionFactory(key_file, cert_file)'
p272
sI1168
S'            else:'
p273
sI1169
S'                conn_factory = httplib.HTTPSConnection'
p274
sI1170
S'            return self.do_open(conn_factory, req)'
p275
sI1171
S''
sI1172
S'        https_request = AbstractHTTPHandler.do_request_'
p276
sI1173
S''
sI1174
S'class HTTPCookieProcessor(BaseHandler):'
p277
ssg95
S'(self=<mechanize._urllib2_fork.HTTPSHandler instance>, req=<mechanize._request.Request instance>)'
p278
sg97
S'https_open'
p279
sa(dp280
g74
S'/usr/local/lib/python2.7/dist-packages/mechanize-0.2.5-py2.7.egg/mechanize/_urllib2_fork.py'
p281
sg76
(dp282
S'err'
p283
S"error(110, 'Connection timed out')"
p284
sS'global URLError'
p285
S"<class 'urllib2.URLError'>"
p286
ssg82
I1118
sg83
(dp287
I1120
S'        # Pick apart the HTTPResponse object to get the addinfourl'
p288
sI1121
S'        # object initialized properly.'
p289
sI1122
S''
sI1113
S''
sI1114
S'        try:'
p290
sI1115
S'            h.request(req.get_method(), req.get_selector(), req.data, headers)'
p291
sI1116
S'            r = h.getresponse()'
p292
sI1117
S'        except socket.error, err: # XXX what error?'
p293
sI1118
S'            raise URLError(err)'
p294
sI1119
S''
ssg95
S'(self=<mechanize._urllib2_fork.HTTPSHandler instance>, http_class=<mechanize._urllib2_fork.HTTPSConnectionFactory instance>, req=<mechanize._request.Request instance>)'
p295
sg97
S'do_open'
p296
sasS'pyver'
p297
S'Python 2.7.5+: /usr/bin/python (prefix: /usr)'
p298
sS'session'
p299
g69
(S's\x07\x01\x00\x00<div><table><tr><td style="font-weight:bold;vertical-align:top">email</td><td valign="top">:</td><td><div>raj.patel</div></td></tr><tr><td style="font-weight:bold;vertical-align:top">name</td><td valign="top">:</td><td><div>Raj Patel</div></td></tr></table></div>'
tRp300
sS'etype'
p301
S"<class 'urllib2.URLError'>"
p302
sS'date'
p303
S'Sun Apr  6 18:27:36 2014'
p304
sS'response'
p305
g69
(S's\xe4\x11\x00\x00<div><table><tr><td style="font-weight:bold;vertical-align:top">body</td><td valign="top">:</td><td><div>&lt;cStringIO.StringO object at 0x7f5eb8285110&gt;</div></td></tr><tr><td style="font-weight:bold;vertical-align:top">cookies</td><td valign="top">:</td><td><div><table><tr><td style="font-weight:bold;vertical-align:top">session_id_itproject</td><td valign="top">:</td><td><div>127.0.0.1-1a4b343b-381e-46c7-b3d9-c1edce8be7b2<table><tr><td style="font-weight:bold;vertical-align:top">comment</td><td valign="top">:</td><td><div></div></td></tr><tr><td style="font-weight:bold;vertical-align:top">domain</td><td valign="top">:</td><td><div></div></td></tr><tr><td style="font-weight:bold;vertical-align:top">expires</td><td valign="top">:</td><td><div></div></td></tr><tr><td style="font-weight:bold;vertical-align:top">httponly</td><td valign="top">:</td><td><div></div></td></tr><tr><td style="font-weight:bold;vertical-align:top">max-age</td><td valign="top">:</td><td><div></div></td></tr><tr><td style="font-weight:bold;vertical-align:top">path</td><td valign="top">:</td><td><div>/</div></td></tr><tr><td style="font-weight:bold;vertical-align:top">secure</td><td valign="top">:</td><td><div></div></td></tr><tr><td style="font-weight:bold;vertical-align:top">version</td><td valign="top">:</td><td><div></div></td></tr></table></div></td></tr></table></div></td></tr><tr><td style="font-weight:bold;vertical-align:top">delimiters</td><td valign="top">:</td><td><div><table><tr><td><div>{{</div></td></tr><tr><td><div>}}</div></td></tr></table></div></td></tr><tr><td style="font-weight:bold;vertical-align:top">files</td><td valign="top">:</td><td><div><table></table></div></td></tr><tr><td style="font-weight:bold;vertical-align:top">flash</td><td valign="top">:</td><td><div></div></td></tr><tr><td style="font-weight:bold;vertical-align:top">generic_patterns</td><td valign="top">:</td><td><div><table><tr><td><div>*</div></td></tr></table></div></td></tr><tr><td style="font-weight:bold;vertical-align:top">headers</td><td valign="top">:</td><td><div><table><tr><td style="font-weight:bold;vertical-align:top">X-Powered-By</td><td valign="top">:</td><td><div>web2py</div></td></tr></table></div></td></tr><tr><td style="font-weight:bold;vertical-align:top">menu</td><td valign="top">:</td><td><div><table></table></div></td></tr><tr><td style="font-weight:bold;vertical-align:top">meta</td><td valign="top">:</td><td><div><table></table></div></td></tr><tr><td style="font-weight:bold;vertical-align:top">models_to_run</td><td valign="top">:</td><td><div><table><tr><td><div>^\\w+\\.py$</div></td></tr><tr><td><div>^main/\\w+\\.py$</div></td></tr><tr><td><div>^main/loginvalidate/\\w+\\.py$</div></td></tr></table></div></td></tr><tr><td style="font-weight:bold;vertical-align:top">postprocessing</td><td valign="top">:</td><td><div><table></table></div></td></tr><tr><td style="font-weight:bold;vertical-align:top">session_cookie_expires</td><td valign="top">:</td><td><div>None</div></td></tr><tr><td style="font-weight:bold;vertical-align:top">session_data_name</td><td valign="top">:</td><td><div>session_data_itproject</div></td></tr><tr><td style="font-weight:bold;vertical-align:top">session_file</td><td valign="top">:</td><td><div>&lt;open file &#x27;/home/raj/web2py/applications/itproject/sessions/127.0.0.1-1a4b343b-381e-46c7-b3d9-c1edce8be7b2&#x27;, mode &#x27;rb+&#x27; at 0x7f5eb4615930&gt;</div></td></tr><tr><td style="font-weight:bold;vertical-align:top">session_filename</td><td valign="top">:</td><td><div>/home/raj/web2py/applications/itproject/sessions/127.0.0.1-1a4b343b-381e-46c7-b3d9-c1edce8be7b2</div></td></tr><tr><td style="font-weight:bold;vertical-align:top">session_id</td><td valign="top">:</td><td><div>127.0.0.1-1a4b343b-381e-46c7-b3d9-c1edce8be7b2</div></td></tr><tr><td style="font-weight:bold;vertical-align:top">session_id_name</td><td valign="top">:</td><td><div>session_id_itproject</div></td></tr><tr><td style="font-weight:bold;vertical-align:top">session_locked</td><td valign="top">:</td><td><div>True</div></td></tr><tr><td style="font-weight:bold;vertical-align:top">session_new</td><td valign="top">:</td><td><div>False</div></td></tr><tr><td style="font-weight:bold;vertical-align:top">session_storage_type</td><td valign="top">:</td><td><div>file</div></td></tr><tr><td style="font-weight:bold;vertical-align:top">status</td><td valign="top">:</td><td><div>200</div></td></tr><tr><td style="font-weight:bold;vertical-align:top">view</td><td valign="top">:</td><td><div>main/loginvalidate.html</div></td></tr></table></div>'
tRp306
sS'locals'
p307
(dp308
S'err'
p309
S"error(110, 'Connection timed out')"
p310
sS'host_port'
p311
S"'isas.iiit.ac.in'"
p312
sS'self'
p313
S'<mechanize._urllib2_fork.HTTPSHandler instance>'
p314
sS'req'
p315
S'<mechanize._request.Request instance>'
p316
sS'headers'
p317
S"{'Connection': 'close', 'Host': 'isas.iiit.ac.in', 'User-Agent': 'Firefox'}"
p318
sS'h'
S'<httplib.HTTPSConnection instance>'
p319
sS'http_class'
p320
S'<mechanize._urllib2_fork.HTTPSConnectionFactory instance>'
p321
sssS'traceback'
p322
S'Traceback (most recent call last):\n  File "/home/raj/web2py/gluon/restricted.py", line 212, in restricted\n    exec ccode in environment\n  File "/home/raj/web2py/applications/itproject/controllers/main.py", line 164, in <module>\n  File "/home/raj/web2py/gluon/globals.py", line 193, in <lambda>\n    self._caller = lambda f: f()\n  File "/home/raj/web2py/applications/itproject/controllers/main.py", line 15, in loginvalidate\n    br.open("https://isas.iiit.ac.in/index.php")\n  File "/usr/local/lib/python2.7/dist-packages/mechanize-0.2.5-py2.7.egg/mechanize/_mechanize.py", line 203, in open\n    return self._mech_open(url, data, timeout=timeout)\n  File "/usr/local/lib/python2.7/dist-packages/mechanize-0.2.5-py2.7.egg/mechanize/_mechanize.py", line 230, in _mech_open\n    response = UserAgentBase.open(self, request, data)\n  File "/usr/local/lib/python2.7/dist-packages/mechanize-0.2.5-py2.7.egg/mechanize/_opener.py", line 193, in open\n    response = urlopen(self, req, data)\n  File "/usr/local/lib/python2.7/dist-packages/mechanize-0.2.5-py2.7.egg/mechanize/_urllib2_fork.py", line 344, in _open\n    \'_open\', req)\n  File "/usr/local/lib/python2.7/dist-packages/mechanize-0.2.5-py2.7.egg/mechanize/_urllib2_fork.py", line 332, in _call_chain\n    result = func(*args)\n  File "/usr/local/lib/python2.7/dist-packages/mechanize-0.2.5-py2.7.egg/mechanize/_urllib2_fork.py", line 1170, in https_open\n    return self.do_open(conn_factory, req)\n  File "/usr/local/lib/python2.7/dist-packages/mechanize-0.2.5-py2.7.egg/mechanize/_urllib2_fork.py", line 1118, in do_open\n    raise URLError(err)\nURLError: <urlopen error [Errno 110] Connection timed out>\n'
p323
s.