(dp1
S'output'
p2
S''
sS'layer'
p3
S'Framework'
p4
sS'code'
p5
S''
sS'snapshot'
p6
(dp7
S'exception'
p8
(dp9
S'__getslice__'
p10
S"<method-wrapper '__getslice__' of exceptions.OSError object>"
p11
sS'__str__'
p12
S"<method-wrapper '__str__' of exceptions.OSError object>"
p13
sS'__reduce__'
p14
S'<built-in method __reduce__ of exceptions.OSError object>'
p15
sS'__dict__'
p16
S'{}'
p17
sS'__sizeof__'
p18
S'<built-in method __sizeof__ of exceptions.OSError object>'
p19
sS'__init__'
p20
S"<method-wrapper '__init__' of exceptions.OSError object>"
p21
sS'__setattr__'
p22
S"<method-wrapper '__setattr__' of exceptions.OSError object>"
p23
sS'__reduce_ex__'
p24
S'<built-in method __reduce_ex__ of exceptions.OSError object>'
p25
sS'__new__'
p26
S'<built-in method __new__ of type object>'
p27
sS'errno'
p28
S'2'
sS'__format__'
p29
S'<built-in method __format__ of exceptions.OSError object>'
p30
sS'__class__'
p31
S"<type 'exceptions.OSError'>"
p32
sS'filename'
p33
S"'/home/raj/web2py/applications/itproject/languages'"
p34
sS'__doc__'
p35
S"'OS system call failed.'"
p36
sS'__getitem__'
p37
S"<method-wrapper '__getitem__' of exceptions.OSError object>"
p38
sS'__setstate__'
p39
S'<built-in method __setstate__ of exceptions.OSError object>'
p40
sS'__getattribute__'
p41
S"<method-wrapper '__getattribute__' of exceptions.OSError object>"
p42
sS'args'
p43
S"(2, 'No such file or directory')"
p44
sS'__subclasshook__'
p45
S'<built-in method __subclasshook__ of type object>'
p46
sS'__unicode__'
p47
S'<built-in method __unicode__ of exceptions.OSError object>'
p48
sS'strerror'
p49
S"'No such file or directory'"
p50
sS'__delattr__'
p51
S"<method-wrapper '__delattr__' of exceptions.OSError object>"
p52
sS'__repr__'
p53
S"<method-wrapper '__repr__' of exceptions.OSError object>"
p54
sS'__hash__'
p55
S"<method-wrapper '__hash__' of exceptions.OSError object>"
p56
ssS'evalue'
p57
S"[Errno 2] No such file or directory: '/home/raj/web2py/applications/itproject/languages'"
p58
sS'request'
p59
cgluon.html
XML_unpickle
p60
(S's\xa4Z\x00\x00<div><table><tr><td style="font-weight:bold;vertical-align:top">ajax</td><td valign="top">:</td><td><div>False</div></td></tr><tr><td style="font-weight:bold;vertical-align:top">application</td><td valign="top">:</td><td><div>itproject</div></td></tr><tr><td style="font-weight:bold;vertical-align:top">args</td><td valign="top">:</td><td><div><table></table></div></td></tr><tr><td style="font-weight:bold;vertical-align:top">body</td><td valign="top">:</td><td><div>&lt;cStringIO.StringO object at 0x7f5eb8504030&gt;</div></td></tr><tr><td style="font-weight:bold;vertical-align:top">cid</td><td valign="top">:</td><td><div>None</div></td></tr><tr><td style="font-weight:bold;vertical-align:top">client</td><td valign="top">:</td><td><div>127.0.0.1</div></td></tr><tr><td style="font-weight:bold;vertical-align:top">controller</td><td valign="top">:</td><td><div>main</div></td></tr><tr><td style="font-weight:bold;vertical-align:top">cookies</td><td valign="top">:</td><td><div><table><tr><td style="font-weight:bold;vertical-align:top">session_id_admin</td><td valign="top">:</td><td><div>127.0.0.1-d0fc9fb1-8d1e-4dc4-967f-264a9f20c549<table><tr><td style="font-weight:bold;vertical-align:top">comment</td><td valign="top">:</td><td><div></div></td></tr><tr><td style="font-weight:bold;vertical-align:top">domain</td><td valign="top">:</td><td><div></div></td></tr><tr><td style="font-weight:bold;vertical-align:top">expires</td><td valign="top">:</td><td><div></div></td></tr><tr><td style="font-weight:bold;vertical-align:top">httponly</td><td valign="top">:</td><td><div></div></td></tr><tr><td style="font-weight:bold;vertical-align:top">max-age</td><td valign="top">:</td><td><div></div></td></tr><tr><td style="font-weight:bold;vertical-align:top">path</td><td valign="top">:</td><td><div></div></td></tr><tr><td style="font-weight:bold;vertical-align:top">secure</td><td valign="top">:</td><td><div></div></td></tr><tr><td style="font-weight:bold;vertical-align:top">version</td><td valign="top">:</td><td><div></div></td></tr></table></div></td></tr><tr><td style="font-weight:bold;vertical-align:top">session_id_itproject</td><td valign="top">:</td><td><div>127.0.0.1-45b93142-f0c9-448c-b91f-0a68cebb9339<table><tr><td style="font-weight:bold;vertical-align:top">comment</td><td valign="top">:</td><td><div></div></td></tr><tr><td style="font-weight:bold;vertical-align:top">domain</td><td valign="top">:</td><td><div></div></td></tr><tr><td style="font-weight:bold;vertical-align:top">expires</td><td valign="top">:</td><td><div></div></td></tr><tr><td style="font-weight:bold;vertical-align:top">httponly</td><td valign="top">:</td><td><div></div></td></tr><tr><td style="font-weight:bold;vertical-align:top">max-age</td><td valign="top">:</td><td><div></div></td></tr><tr><td style="font-weight:bold;vertical-align:top">path</td><td valign="top">:</td><td><div></div></td></tr><tr><td style="font-weight:bold;vertical-align:top">secure</td><td valign="top">:</td><td><div></div></td></tr><tr><td style="font-weight:bold;vertical-align:top">version</td><td valign="top">:</td><td><div></div></td></tr></table></div></td></tr><tr><td style="font-weight:bold;vertical-align:top">session_id_itprojectold</td><td valign="top">:</td><td><div>127.0.0.1-8d7ff96f-96e9-4727-a8e0-964476af2908<table><tr><td style="font-weight:bold;vertical-align:top">comment</td><td valign="top">:</td><td><div></div></td></tr><tr><td style="font-weight:bold;vertical-align:top">domain</td><td valign="top">:</td><td><div></div></td></tr><tr><td style="font-weight:bold;vertical-align:top">expires</td><td valign="top">:</td><td><div></div></td></tr><tr><td style="font-weight:bold;vertical-align:top">httponly</td><td valign="top">:</td><td><div></div></td></tr><tr><td style="font-weight:bold;vertical-align:top">max-age</td><td valign="top">:</td><td><div></div></td></tr><tr><td style="font-weight:bold;vertical-align:top">path</td><td valign="top">:</td><td><div></div></td></tr><tr><td style="font-weight:bold;vertical-align:top">secure</td><td valign="top">:</td><td><div></div></td></tr><tr><td style="font-weight:bold;vertical-align:top">version</td><td valign="top">:</td><td><div></div></td></tr></table></div></td></tr><tr><td style="font-weight:bold;vertical-align:top">session_id_welcome</td><td valign="top">:</td><td><div>127.0.0.1-d41b9e8f-9591-491e-a414-0effb569cf57<table><tr><td style="font-weight:bold;vertical-align:top">comment</td><td valign="top">:</td><td><div></div></td></tr><tr><td style="font-weight:bold;vertical-align:top">domain</td><td valign="top">:</td><td><div></div></td></tr><tr><td style="font-weight:bold;vertical-align:top">expires</td><td valign="top">:</td><td><div></div></td></tr><tr><td style="font-weight:bold;vertical-align:top">httponly</td><td valign="top">:</td><td><div></div></td></tr><tr><td style="font-weight:bold;vertical-align:top">max-age</td><td valign="top">:</td><td><div></div></td></tr><tr><td style="font-weight:bold;vertical-align:top">path</td><td valign="top">:</td><td><div></div></td></tr><tr><td style="font-weight:bold;vertical-align:top">secure</td><td valign="top">:</td><td><div></div></td></tr><tr><td style="font-weight:bold;vertical-align:top">version</td><td valign="top">:</td><td><div></div></td></tr></table></div></td></tr></table></div></td></tr><tr><td style="font-weight:bold;vertical-align:top">env</td><td valign="top">:</td><td><div><table><tr><td style="font-weight:bold;vertical-align:top">app_folders</td><td valign="top">:</td><td><div>set([&#x27;/home/raj/web2py/applications/itprojectold/&#x27;, &#x27;/home/raj/web2py/applications/admin/&#x27;, &#x27;/home/raj/web2py/applications/itproject/&#x27;, &#x27;/home/raj/web2py/applications/welcome/&#x27;])</div></td></tr><tr><td style="font-weight:bold;vertical-align:top">applications_parent</td><td valign="top">:</td><td><div>/home/raj/web2py</div></td></tr><tr><td style="font-weight:bold;vertical-align:top">cmd_args</td><td valign="top">:</td><td><div><table></table></div></td></tr><tr><td style="font-weight:bold;vertical-align:top">cmd_options</td><td valign="top">:</td><td><div>&lt;Values at 0x1b85d40: {&#x27;verbose&#x27;: False, &#x27;ip&#x27;: &#x27;127.0.0.1&#x27;, &#x27;with_scheduler&#x27;: False, &#x27;ips&#x27;: [], &#x27;shutdown_timeout&#x27;: 5, &#x27;taskbar&#x27;: False, &#x27;port&#x27;: 8000, &#x27;maxthreads&#x27;: None, &#x27;softcron&#x27;: False, &#x27;server_name&#x27;: &#x27;raj-Inspiron-3537&#x27;, &#x27;bpython&#x27;: False, &#x27;nogui&#x27;: False, &#x27;pid_filename&#x27;: &#x27;httpserver.pid&#x27;, &#x27;extcron&#x27;: False, &#x27;runcron&#x27;: False, &#x27;run_system_tests&#x27;: False, &#x27;test&#x27;: None, &#x27;folder&#x27;: &#x27;/home/raj/web2py&#x27;, &#x27;config&#x27;: &#x27;&#x27;, &#x27;minthreads&#x27;: None, &#x27;winservice&#x27;: &#x27;&#x27;, &#x27;shell&#x27;: None, &#x27;run&#x27;: &#x27;&#x27;, &#x27;log_filename&#x27;: &#x27;httpserver.log&#x27;, &#x27;debuglevel&#x27;: 30, &#x27;args&#x27;: [&#x27;&#x27;], &#x27;socket_timeout&#x27;: 5, &#x27;ssl_ca_certificate&#x27;: None, &#x27;scheduler&#x27;: None, &#x27;profiler_filename&#x27;: None, &#x27;ssl_private_key&#x27;: &#x27;&#x27;, &#x27;scheduler_groups&#x27;: None, &#x27;password&#x27;: &#x27;&lt;ask&gt;&#x27;, &#x27;request_queue_size&#x27;: 5, &#x27;ssl_certificate&#x27;: &#x27;&#x27;, &#x27;cronjob&#x27;: False, &#x27;numthreads&#x27;: None, &#x27;quiet&#x27;: False, &#x27;interfaces&#x27;: None, &#x27;import_models&#x27;: False, &#x27;timeout&#x27;: 10, &#x27;plain&#x27;: False, &#x27;nobanner&#x27;: False}&gt;</div></td></tr><tr><td style="font-weight:bold;vertical-align:top">db_sessions</td><td valign="top">:</td><td><div>set([])</div></td></tr><tr><td style="font-weight:bold;vertical-align:top">debugging</td><td valign="top">:</td><td><div>True</div></td></tr><tr><td style="font-weight:bold;vertical-align:top">gluon_parent</td><td valign="top">:</td><td><div>/home/raj/web2py</div></td></tr><tr><td style="font-weight:bold;vertical-align:top">http_accept</td><td valign="top">:</td><td><div>text/html,application/xhtml+xml,application/xml;q=0.9,*/*;q=0.8</div></td></tr><tr><td style="font-weight:bold;vertical-align:top">http_accept_encoding</td><td valign="top">:</td><td><div>gzip, deflate</div></td></tr><tr><td style="font-weight:bold;vertical-align:top">http_accept_language</td><td valign="top">:</td><td><div>en-US,en;q=0.5</div></td></tr><tr><td style="font-weight:bold;vertical-align:top">http_cache_control</td><td valign="top">:</td><td><div>max-age=0</div></td></tr><tr><td style="font-weight:bold;vertical-align:top">http_connection</td><td valign="top">:</td><td><div>keep-alive</div></td></tr><tr><td style="font-weight:bold;vertical-align:top">http_cookie</td><td valign="top">:</td><td><div>session_id_itproject=127.0.0.1-45b93142-f0c9-448c-b91f-0a68cebb9339; session_id_welcome=127.0.0.1-d41b9e8f-9591-491e-a414-0effb569cf57; session_id_admin=127.0.0.1-d0fc9fb1-8d1e-4dc4-967f-264a9f20c549; session_id_itprojectold=127.0.0.1-8d7ff96f-96e9-4727-a8e0-964476af2908</div></td></tr><tr><td style="font-weight:bold;vertical-align:top">http_host</td><td valign="top">:</td><td><div>127.0.0.1:8000</div></td></tr><tr><td style="font-weight:bold;vertical-align:top">http_referer</td><td valign="top">:</td><td><div>http://127.0.0.1:8000/itproject/main/loginmy</div></td></tr><tr><td style="font-weight:bold;vertical-align:top">http_user_agent</td><td valign="top">:</td><td><div>Mozilla/5.0 (X11; Ubuntu; Linux x86_64; rv:24.0) Gecko/20100101 Firefox/24.0</div></td></tr><tr><td style="font-weight:bold;vertical-align:top">is_jython</td><td valign="top">:</td><td><div>False</div></td></tr><tr><td style="font-weight:bold;vertical-align:top">is_pypy</td><td valign="top">:</td><td><div>False</div></td></tr><tr><td style="font-weight:bold;vertical-align:top">local_hosts</td><td valign="top">:</td><td><div><table><tr><td><div>::1</div></td></tr><tr><td><div>127.0.1.1</div></td></tr><tr><td><div>raj-Inspiron-3537</div></td></tr><tr><td><div>::ffff:127.0.0.1</div></td></tr><tr><td><div>127.0.0.1</div></td></tr></table></div></td></tr><tr><td style="font-weight:bold;vertical-align:top">path_info</td><td valign="top">:</td><td><div>/itproject/main/mails</div></td></tr><tr><td style="font-weight:bold;vertical-align:top">query_string</td><td valign="top">:</td><td><div></div></td></tr><tr><td style="font-weight:bold;vertical-align:top">remote_addr</td><td valign="top">:</td><td><div>127.0.0.1</div></td></tr><tr><td style="font-weight:bold;vertical-align:top">remote_port</td><td valign="top">:</td><td><div>46655</div></td></tr><tr><td style="font-weight:bold;vertical-align:top">request_method</td><td valign="top">:</td><td><div>GET</div></td></tr><tr><td style="font-weight:bold;vertical-align:top">request_uri</td><td valign="top">:</td><td><div>/itproject/main/mails</div></td></tr><tr><td style="font-weight:bold;vertical-align:top">script_name</td><td valign="top">:</td><td><div></div></td></tr><tr><td style="font-weight:bold;vertical-align:top">server_name</td><td valign="top">:</td><td><div>raj-Inspiron-3537</div></td></tr><tr><td style="font-weight:bold;vertical-align:top">server_port</td><td valign="top">:</td><td><div>8000</div></td></tr><tr><td style="font-weight:bold;vertical-align:top">server_protocol</td><td valign="top">:</td><td><div>HTTP/1.1</div></td></tr><tr><td style="font-weight:bold;vertical-align:top">server_software</td><td valign="top">:</td><td><div>Rocket 1.2.6</div></td></tr><tr><td style="font-weight:bold;vertical-align:top">web2py_path</td><td valign="top">:</td><td><div>/home/raj/web2py</div></td></tr><tr><td style="font-weight:bold;vertical-align:top">web2py_version</td><td valign="top">:</td><td><div><table><tr><td><div>2</div></td></tr><tr><td><div>4</div></td></tr><tr><td><div>2</div></td></tr><tr><td><div>stable</div></td></tr><tr><td><div>datetime.datetime(2013, 3, 4, 3, 26, 21)</div></td></tr></table></div></td></tr><tr><td style="font-weight:bold;vertical-align:top">wsgi_errors</td><td valign="top">:</td><td><div>&lt;open file &#x27;&lt;stderr&gt;&#x27;, mode &#x27;w&#x27; at 0x7f5eef3091e0&gt;</div></td></tr><tr><td style="font-weight:bold;vertical-align:top">wsgi_file_wrapper</td><td valign="top">:</td><td><div>&lt;class wsgiref.util.FileWrapper at 0x1b570b8&gt;</div></td></tr><tr><td style="font-weight:bold;vertical-align:top">wsgi_input</td><td valign="top">:</td><td><div>&lt;socket._fileobject object at 0x7f5eb0371450&gt;</div></td></tr><tr><td style="font-weight:bold;vertical-align:top">wsgi_multiprocess</td><td valign="top">:</td><td><div>False</div></td></tr><tr><td style="font-weight:bold;vertical-align:top">wsgi_multithread</td><td valign="top">:</td><td><div>True</div></td></tr><tr><td style="font-weight:bold;vertical-align:top">wsgi_run_once</td><td valign="top">:</td><td><div>False</div></td></tr><tr><td style="font-weight:bold;vertical-align:top">wsgi_url_scheme</td><td valign="top">:</td><td><div>http</div></td></tr><tr><td style="font-weight:bold;vertical-align:top">wsgi_version</td><td valign="top">:</td><td><div><table><tr><td><div>1</div></td></tr><tr><td><div>0</div></td></tr></table></div></td></tr></table></div></td></tr><tr><td style="font-weight:bold;vertical-align:top">extension</td><td valign="top">:</td><td><div>html</div></td></tr><tr><td style="font-weight:bold;vertical-align:top">folder</td><td valign="top">:</td><td><div>/home/raj/web2py/applications/itproject/</div></td></tr><tr><td style="font-weight:bold;vertical-align:top">function</td><td valign="top">:</td><td><div>mails</div></td></tr><tr><td style="font-weight:bold;vertical-align:top">get_vars</td><td valign="top">:</td><td><div><table></table></div></td></tr><tr><td style="font-weight:bold;vertical-align:top">global_settings</td><td valign="top">:</td><td><div><table><tr><td style="font-weight:bold;vertical-align:top">app_folders</td><td valign="top">:</td><td><div>set([&#x27;/home/raj/web2py/applications/itprojectold/&#x27;, &#x27;/home/raj/web2py/applications/admin/&#x27;, &#x27;/home/raj/web2py/applications/itproject/&#x27;, &#x27;/home/raj/web2py/applications/welcome/&#x27;])</div></td></tr><tr><td style="font-weight:bold;vertical-align:top">applications_parent</td><td valign="top">:</td><td><div>/home/raj/web2py</div></td></tr><tr><td style="font-weight:bold;vertical-align:top">cmd_args</td><td valign="top">:</td><td><div><table></table></div></td></tr><tr><td style="font-weight:bold;vertical-align:top">cmd_options</td><td valign="top">:</td><td><div>&lt;Values at 0x1b85d40: {&#x27;verbose&#x27;: False, &#x27;ip&#x27;: &#x27;127.0.0.1&#x27;, &#x27;with_scheduler&#x27;: False, &#x27;ips&#x27;: [], &#x27;shutdown_timeout&#x27;: 5, &#x27;taskbar&#x27;: False, &#x27;port&#x27;: 8000, &#x27;maxthreads&#x27;: None, &#x27;softcron&#x27;: False, &#x27;server_name&#x27;: &#x27;raj-Inspiron-3537&#x27;, &#x27;bpython&#x27;: False, &#x27;nogui&#x27;: False, &#x27;pid_filename&#x27;: &#x27;httpserver.pid&#x27;, &#x27;extcron&#x27;: False, &#x27;runcron&#x27;: False, &#x27;run_system_tests&#x27;: False, &#x27;test&#x27;: None, &#x27;folder&#x27;: &#x27;/home/raj/web2py&#x27;, &#x27;config&#x27;: &#x27;&#x27;, &#x27;minthreads&#x27;: None, &#x27;winservice&#x27;: &#x27;&#x27;, &#x27;shell&#x27;: None, &#x27;run&#x27;: &#x27;&#x27;, &#x27;log_filename&#x27;: &#x27;httpserver.log&#x27;, &#x27;debuglevel&#x27;: 30, &#x27;args&#x27;: [&#x27;&#x27;], &#x27;socket_timeout&#x27;: 5, &#x27;ssl_ca_certificate&#x27;: None, &#x27;scheduler&#x27;: None, &#x27;profiler_filename&#x27;: None, &#x27;ssl_private_key&#x27;: &#x27;&#x27;, &#x27;scheduler_groups&#x27;: None, &#x27;password&#x27;: &#x27;&lt;ask&gt;&#x27;, &#x27;request_queue_size&#x27;: 5, &#x27;ssl_certificate&#x27;: &#x27;&#x27;, &#x27;cronjob&#x27;: False, &#x27;numthreads&#x27;: None, &#x27;quiet&#x27;: False, &#x27;interfaces&#x27;: None, &#x27;import_models&#x27;: False, &#x27;timeout&#x27;: 10, &#x27;plain&#x27;: False, &#x27;nobanner&#x27;: False}&gt;</div></td></tr><tr><td style="font-weight:bold;vertical-align:top">db_sessions</td><td valign="top">:</td><td><div>set([])</div></td></tr><tr><td style="font-weight:bold;vertical-align:top">debugging</td><td valign="top">:</td><td><div>True</div></td></tr><tr><td style="font-weight:bold;vertical-align:top">gluon_parent</td><td valign="top">:</td><td><div>/home/raj/web2py</div></td></tr><tr><td style="font-weight:bold;vertical-align:top">is_jython</td><td valign="top">:</td><td><div>False</div></td></tr><tr><td style="font-weight:bold;vertical-align:top">is_pypy</td><td valign="top">:</td><td><div>False</div></td></tr><tr><td style="font-weight:bold;vertical-align:top">local_hosts</td><td valign="top">:</td><td><div><table><tr><td><div>::1</div></td></tr><tr><td><div>127.0.1.1</div></td></tr><tr><td><div>raj-Inspiron-3537</div></td></tr><tr><td><div>::ffff:127.0.0.1</div></td></tr><tr><td><div>127.0.0.1</div></td></tr></table></div></td></tr><tr><td style="font-weight:bold;vertical-align:top">web2py_version</td><td valign="top">:</td><td><div><table><tr><td><div>2</div></td></tr><tr><td><div>4</div></td></tr><tr><td><div>2</div></td></tr><tr><td><div>stable</div></td></tr><tr><td><div>datetime.datetime(2013, 3, 4, 3, 26, 21)</div></td></tr></table></div></td></tr></table></div></td></tr><tr><td style="font-weight:bold;vertical-align:top">is_https</td><td valign="top">:</td><td><div>False</div></td></tr><tr><td style="font-weight:bold;vertical-align:top">is_local</td><td valign="top">:</td><td><div>True</div></td></tr><tr><td style="font-weight:bold;vertical-align:top">is_restful</td><td valign="top">:</td><td><div>False</div></td></tr><tr><td style="font-weight:bold;vertical-align:top">now</td><td valign="top">:</td><td><div>datetime.datetime(2014, 4, 6, 15, 52, 4, 513583)</div></td></tr><tr><td style="font-weight:bold;vertical-align:top">post_vars</td><td valign="top">:</td><td><div><table></table></div></td></tr><tr><td style="font-weight:bold;vertical-align:top">raw_args</td><td valign="top">:</td><td><div></div></td></tr><tr><td style="font-weight:bold;vertical-align:top">raw_extension</td><td valign="top">:</td><td><div>None</div></td></tr><tr><td style="font-weight:bold;vertical-align:top">url</td><td valign="top">:</td><td><div>/itproject/main/mails</div></td></tr><tr><td style="font-weight:bold;vertical-align:top">utcnow</td><td valign="top">:</td><td><div>datetime.datetime(2014, 4, 6, 10, 22, 4, 513625)</div></td></tr><tr><td style="font-weight:bold;vertical-align:top">uuid</td><td valign="top">:</td><td><div>itproject/127.0.0.1.2014-04-06.15-52-04.16e4bf7c-5287-4412-b758-c186d25df808</div></td></tr><tr><td style="font-weight:bold;vertical-align:top">vars</td><td valign="top">:</td><td><div><table></table></div></td></tr><tr><td style="font-weight:bold;vertical-align:top">wsgi</td><td valign="top">:</td><td><div><table><tr><td style="font-weight:bold;vertical-align:top">environ</td><td valign="top">:</td><td><div><table><tr><td style="font-weight:bold;vertical-align:top">HTTP_ACCEPT</td><td valign="top">:</td><td><div>text/html,application/xhtml+xml,application/xml;q=0.9,*/*;q=0.8</div></td></tr><tr><td style="font-weight:bold;vertical-align:top">HTTP_ACCEPT_ENCODING</td><td valign="top">:</td><td><div>gzip, deflate</div></td></tr><tr><td style="font-weight:bold;vertical-align:top">HTTP_ACCEPT_LANGUAGE</td><td valign="top">:</td><td><div>en-US,en;q=0.5</div></td></tr><tr><td style="font-weight:bold;vertical-align:top">HTTP_CACHE_CONTROL</td><td valign="top">:</td><td><div>max-age=0</div></td></tr><tr><td style="font-weight:bold;vertical-align:top">HTTP_CONNECTION</td><td valign="top">:</td><td><div>keep-alive</div></td></tr><tr><td style="font-weight:bold;vertical-align:top">HTTP_COOKIE</td><td valign="top">:</td><td><div>session_id_itproject=127.0.0.1-45b93142-f0c9-448c-b91f-0a68cebb9339; session_id_welcome=127.0.0.1-d41b9e8f-9591-491e-a414-0effb569cf57; session_id_admin=127.0.0.1-d0fc9fb1-8d1e-4dc4-967f-264a9f20c549; session_id_itprojectold=127.0.0.1-8d7ff96f-96e9-4727-a8e0-964476af2908</div></td></tr><tr><td style="font-weight:bold;vertical-align:top">HTTP_HOST</td><td valign="top">:</td><td><div>127.0.0.1:8000</div></td></tr><tr><td style="font-weight:bold;vertical-align:top">HTTP_REFERER</td><td valign="top">:</td><td><div>http://127.0.0.1:8000/itproject/main/loginmy</div></td></tr><tr><td style="font-weight:bold;vertical-align:top">HTTP_USER_AGENT</td><td valign="top">:</td><td><div>Mozilla/5.0 (X11; Ubuntu; Linux x86_64; rv:24.0) Gecko/20100101 Firefox/24.0</div></td></tr><tr><td style="font-weight:bold;vertical-align:top">PATH_INFO</td><td valign="top">:</td><td><div>/itproject/main/mails</div></td></tr><tr><td style="font-weight:bold;vertical-align:top">QUERY_STRING</td><td valign="top">:</td><td><div></div></td></tr><tr><td style="font-weight:bold;vertical-align:top">REMOTE_ADDR</td><td valign="top">:</td><td><div>127.0.0.1</div></td></tr><tr><td style="font-weight:bold;vertical-align:top">REMOTE_PORT</td><td valign="top">:</td><td><div>46655</div></td></tr><tr><td style="font-weight:bold;vertical-align:top">REQUEST_METHOD</td><td valign="top">:</td><td><div>GET</div></td></tr><tr><td style="font-weight:bold;vertical-align:top">REQUEST_URI</td><td valign="top">:</td><td><div>/itproject/main/mails</div></td></tr><tr><td style="font-weight:bold;vertical-align:top">SCRIPT_NAME</td><td valign="top">:</td><td><div></div></td></tr><tr><td style="font-weight:bold;vertical-align:top">SERVER_NAME</td><td valign="top">:</td><td><div>raj-Inspiron-3537</div></td></tr><tr><td style="font-weight:bold;vertical-align:top">SERVER_PORT</td><td valign="top">:</td><td><div>8000</div></td></tr><tr><td style="font-weight:bold;vertical-align:top">SERVER_PROTOCOL</td><td valign="top">:</td><td><div>HTTP/1.1</div></td></tr><tr><td style="font-weight:bold;vertical-align:top">SERVER_SOFTWARE</td><td valign="top">:</td><td><div>Rocket 1.2.6</div></td></tr><tr><td style="font-weight:bold;vertical-align:top">wsgi.errors</td><td valign="top">:</td><td><div>&lt;open file &#x27;&lt;stderr&gt;&#x27;, mode &#x27;w&#x27; at 0x7f5eef3091e0&gt;</div></td></tr><tr><td style="font-weight:bold;vertical-align:top">wsgi.file_wrapper</td><td valign="top">:</td><td><div>&lt;class wsgiref.util.FileWrapper at 0x1b570b8&gt;</div></td></tr><tr><td style="font-weight:bold;vertical-align:top">wsgi.input</td><td valign="top">:</td><td><div>&lt;cStringIO.StringO object at 0x7f5eb8504030&gt;</div></td></tr><tr><td style="font-weight:bold;vertical-align:top">wsgi.multiprocess</td><td valign="top">:</td><td><div>False</div></td></tr><tr><td style="font-weight:bold;vertical-align:top">wsgi.multithread</td><td valign="top">:</td><td><div>True</div></td></tr><tr><td style="font-weight:bold;vertical-align:top">wsgi.run_once</td><td valign="top">:</td><td><div>False</div></td></tr><tr><td style="font-weight:bold;vertical-align:top">wsgi.url_scheme</td><td valign="top">:</td><td><div>http</div></td></tr><tr><td style="font-weight:bold;vertical-align:top">wsgi.version</td><td valign="top">:</td><td><div>1</div></td></tr></table></div></td></tr></table></div></td></tr></table></div>'
tRp61
sS'frames'
p62
(lp63
(dp64
S'file'
p65
S'/home/raj/web2py/gluon/main.py'
p66
sS'dump'
p67
(dp68
S'global serve_controller'
p69
S'<function serve_controller>'
p70
sS'session'
p71
S'<Storage {}>'
p72
sS'request'
p73
S"<Storage {'function': 'mails', 'body': <cStringI...ications/itproject/', 'post_vars': <Storage {}>}>"
p74
sS'response'
p75
S"<Storage {'body': <cStringIO.StringO object at 0..._caller': <function <lambda> at 0x7f5ec82c4f50>}>"
p76
ssS'lnum'
p77
I544
sS'lines'
p78
(dp79
I544
S'                serve_controller(request, response, session)'
p80
sI545
S''
sI546
S'            except HTTP, http_response:'
p81
sI547
S''
sI548
S'                if static_file:'
p82
sI539
S'                if global_settings.debugging and app != "admin":'
p83
sI540
S'                    import gluon.debug'
p84
sI541
S'                    # activate the debugger'
p85
sI542
S'                    gluon.debug.dbg.do_debug(mainpyfile=request.folder)'
p86
sI543
S''
ssS'call'
p87
S"(environ={'HTTP_ACCEPT': 'text/html,application/xhtml+xml,application/xml;q=0.9,*/*;q=0.8', 'HTTP_ACCEPT_ENCODING': 'gzip, deflate', 'HTTP_ACCEPT_LANGUAGE': 'en-US,en;q=0.5', 'HTTP_CACHE_CONTROL': 'max-age=0', 'HTTP_CONNECTION': 'keep-alive', 'HTTP_COOKIE': 'session_id_itproject=127.0.0.1-45b93142-f0c9-448...ld=127.0.0.1-8d7ff96f-96e9-4727-a8e0-964476af2908', 'HTTP_HOST': '127.0.0.1:8000', 'HTTP_REFERER': 'http://127.0.0.1:8000/itproject/main/loginmy', 'HTTP_USER_AGENT': 'Mozilla/5.0 (X11; Ubuntu; Linux x86_64; rv:24.0) Gecko/20100101 Firefox/24.0', 'PATH_INFO': '/itproject/main/mails', ...}, responder=<function responder2>)"
p88
sS'func'
p89
S'wsgibase'
p90
sa(dp91
g65
S'/home/raj/web2py/gluon/main.py'
p92
sg67
(dp93
S'environment'
p94
S'undefined'
p95
sS'session'
p96
S'<Storage {}>'
p97
sS'request'
p98
S"<Storage {'function': 'mails', 'body': <cStringI...ications/itproject/', 'post_vars': <Storage {}>}>"
p99
sS'response'
p100
S"<Storage {'body': <cStringIO.StringO object at 0..._caller': <function <lambda> at 0x7f5ec82c4f50>}>"
p101
sS'global build_environment'
p102
S'<function build_environment>'
p103
ssg77
I209
sg78
(dp104
I204
S''
sI205
S'    # ##################################################'
p105
sI206
S'    # build environment for controller and view'
p106
sI207
S'    # ##################################################'
p107
sI208
S''
sI209
S'    environment = build_environment(request, response, session)'
p108
sI210
S''
sI211
S'    # set default view, controller can override it'
p109
sI212
S''
sI213
S"    response.view = '%s/%s.%s' % (request.controller,"
p110
ssg87
S"(request=<Storage {'function': 'mails', 'body': <cStringI...ications/itproject/', 'post_vars': <Storage {}>}>, response=<Storage {'body': <cStringIO.StringO object at 0..._caller': <function <lambda> at 0x7f5ec82c4f50>}>, session=<Storage {}>)"
p111
sg89
S'serve_controller'
p112
sa(dp113
g65
S'/home/raj/web2py/gluon/compileapp.py'
p114
sg67
(dp115
S'request'
p116
S"<Storage {'function': 'mails', 'body': <cStringI...ications/itproject/', 'post_vars': <Storage {}>}>"
p117
sS'request.env.http_accept_language'
p118
S"'en-US,en;q=0.5'"
p119
sS'request.env'
p120
S"<Storage {'debugging': True, 'http_user_agent': ...[]), 'query_string': '', 'wsgi_run_once': False}>"
p121
ssg77
I400
sg78
(dp122
I395
S'    # /[controller]/[function]/*.py)'
p123
sI396
S"    response.models_to_run = [r'^\\w+\\.py$', r'^%s/\\w+\\.py$' % request.controller,"
p124
sI397
S"                              r'^%s/%s/\\w+\\.py$' % (request.controller, request.function)]"
p125
sI398
S''
sI399
S"    t = environment['T'] = translator(os.path.join(request.folder,'languages'),"
p126
sI400
S'                                      request.env.http_accept_language)'
p127
sI401
S"    c = environment['cache'] = Cache(request)"
p128
sI402
S''
sI403
S'    if store_current:'
p129
sI404
S'        current.globalenv = environment'
p130
ssg87
S"(request=<Storage {'function': 'mails', 'body': <cStringI...ications/itproject/', 'post_vars': <Storage {}>}>, response=<Storage {'body': <cStringIO.StringO object at 0..._caller': <function <lambda> at 0x7f5ec82c4f50>}>, session=<Storage {}>, store_current=True)"
p131
sg89
S'build_environment'
p132
sa(dp133
g65
S'/home/raj/web2py/gluon/languages.py'
p134
sg67
(dp135
S'self'
p136
S'<gluon.languages.translator object>'
p137
sS'self.set_current_languages'
p138
S'<bound method translator.set_current_languages of <gluon.languages.translator object>>'
p139
ssg77
I468
sg78
(dp140
I463
S'        # filled in self.set_current_languages():'
p141
sI464
S'        #----------------------------------------'
p142
sI465
S'        # self.default_language_file'
p143
sI466
S'        # self.default_t'
p144
sI467
S'        # self.current_languages'
p145
sI468
S'        self.set_current_languages()'
p146
sI469
S'        self.lazy = True'
p147
sI470
S'        self.otherTs = {}'
p148
sI471
S'        self.filter = markmin'
p149
sI472
S"        self.ftag = 'markmin'"
p150
ssg87
S"(self=<gluon.languages.translator object>, langpath='/home/raj/web2py/applications/itproject/languages', http_accept_language='en-US,en;q=0.5')"
p151
sg89
g20
sa(dp152
g65
S'/home/raj/web2py/gluon/languages.py'
p153
sg67
(dp154
S'self'
p155
S'<gluon.languages.translator object>'
p156
sS'pl_info'
p157
g95
sS'self.get_possible_languages_info'
p158
S'<bound method translator.get_possible_languages_info of <gluon.languages.translator object>>'
p159
ssg77
I525
sg78
(dp160
I520
S'        if len(languages) == 1 and isinstance('
p161
sI521
S'                languages[0], (tuple, list)):'
p162
sI522
S'            languages = languages[0]'
p163
sI523
S'        if not languages or languages[0] is None:'
p164
sI524
S'            # set default language from default.py/DEFAULT_LANGUAGE'
p165
sI525
S"            pl_info = self.get_possible_languages_info('default')"
p166
sI526
S'            if pl_info[2] == 0:  # langfile_mtime'
p167
sI527
S'                # if languages/default.py is not found'
p168
sI528
S'                self.default_language_file = self.langpath'
p169
sI529
S'                self.default_t = {}'
p170
ssg87
S'(self=<gluon.languages.translator object>, *languages=())'
p171
sg89
S'set_current_languages'
p172
sa(dp173
g65
S'/home/raj/web2py/gluon/languages.py'
p174
sg67
(dp175
S'info'
p176
g95
sS'global read_possible_languages'
p177
S'<function read_possible_languages>'
p178
sS'self'
p179
S'<gluon.languages.translator object>'
p180
sS'self.langpath'
p181
S"'/home/raj/web2py/applications/itproject/languages'"
p182
ssg77
I503
sg78
(dp183
I498
S'                  nplurals,        # nplurals for current language'
p184
sI499
S'                  get_plural_id,   # get_plural_id() for current language'
p185
sI500
S'                  construct_plural_form) # construct_plural_form() for current language'
p186
sI501
S'            }'
p187
sI502
S'        """'
p188
sI503
S'        info = read_possible_languages(self.langpath)'
p189
sI504
S'        if lang:'
p190
sI505
S'            info = info.get(lang)'
p191
sI506
S'        return info'
p192
sI507
S''
ssg87
S"(self=<gluon.languages.translator object>, lang='default')"
p193
sg89
S'get_possible_languages_info'
p194
sa(dp195
g65
S'/home/raj/web2py/gluon/languages.py'
p196
sg67
(dp197
S'langpath'
p198
S"'/home/raj/web2py/applications/itproject/languages'"
p199
sS'global read_possible_languages_aux'
p200
S'<function read_possible_languages_aux>'
p201
ssg77
I275
sg78
(dp202
I270
S'    return langs'
p203
sI271
S''
sI272
S''
sI273
S'def read_possible_languages(langpath):'
p204
sI274
S"    return getcfs('langs:' + langpath, langpath,"
p205
sI275
S'                  lambda: read_possible_languages_aux(langpath))'
p206
sI276
S''
sI277
S''
sI278
S'def read_plural_dict_aux(filename):'
p207
sI279
S"    lang_text = read_locked(filename).replace('\\r\\n', '\\n')"
p208
ssg87
S"(langpath='/home/raj/web2py/applications/itproject/languages')"
p209
sg89
S'read_possible_languages'
p210
sa(dp211
g65
S'/home/raj/web2py/gluon/cfs.py'
p212
sg67
(dp213
S'filter'
p214
S'<function <lambda>>'
p215
sS'builtincallable'
p216
S'<built-in function callable>'
p217
ssg77
I40
sg78
(dp218
I35
S'    This is used on Google App Engine since pyc files cannot be saved.'
p219
sI36
S'    """'
p220
sI37
S'    try:'
p221
sI38
S'        t = stat(filename).st_mtime'
p222
sI39
S'    except OSError:'
p223
sI40
S"        return filter() if callable(filter) else ''"
p224
sI41
S'    cfs_lock.acquire()'
p225
sI42
S'    item = cfs.get(key, None)'
p226
sI43
S'    cfs_lock.release()'
p227
sI44
S'    if item and item[0] == t:'
p228
ssg87
S"(key='langs:/home/raj/web2py/applications/itproject/languages', filename='/home/raj/web2py/applications/itproject/languages', filter=<function <lambda>>)"
p229
sg89
S'getcfs'
p230
sa(dp231
g65
S'/home/raj/web2py/gluon/languages.py'
p232
sg67
(dp233
S'langpath'
p234
S"'/home/raj/web2py/applications/itproject/languages'"
p235
sS'global read_possible_languages_aux'
p236
S'<function read_possible_languages_aux>'
p237
ssg77
I275
sg78
(dp238
I270
S'    return langs'
p239
sI271
S''
sI272
S''
sI273
S'def read_possible_languages(langpath):'
p240
sI274
S"    return getcfs('langs:' + langpath, langpath,"
p241
sI275
S'                  lambda: read_possible_languages_aux(langpath))'
p242
sI276
S''
sI277
S''
sI278
S'def read_plural_dict_aux(filename):'
p243
sI279
S"    lang_text = read_locked(filename).replace('\\r\\n', '\\n')"
p244
ssg87
S'()'
p245
sg89
S'<lambda>'
p246
sa(dp247
g65
S'/home/raj/web2py/gluon/languages.py'
p248
sg67
(dp249
S'global oslistdir'
p250
S'<built-in function listdir>'
p251
sS'langdir'
p252
S"'/home/raj/web2py/applications/itproject/languages'"
p253
sS'flist'
p254
g95
ssg77
I240
sg78
(dp255
I235
S'                nplurals,        # nplurals for current language'
p256
sI236
S'                get_plural_id,   # get_plural_id() for current language'
p257
sI237
S'                construct_plural_form)  # construct_plural_form() for current language'
p258
sI238
S''
sI239
S'    plurals = {}'
p259
sI240
S'    flist = oslistdir(langdir)'
p260
sI241
S'    # scan languages directory for plural dict files:'
p261
sI242
S'    for pname in flist:'
p262
sI243
S'        if regex_plural_file.match(pname):'
p263
sI244
S'            plurals[pname[7:-3]] = (pname,'
p264
ssg87
S"(langdir='/home/raj/web2py/applications/itproject/languages')"
p265
sg89
S'read_possible_languages_aux'
p266
sasS'pyver'
p267
S'Python 2.7.5+: /usr/bin/python (prefix: /usr)'
p268
sS'session'
p269
g60
(S's\x1a\x00\x00\x00<div><table></table></div>'
tRp270
sS'etype'
p271
S"<type 'exceptions.OSError'>"
p272
sS'date'
p273
S'Sun Apr  6 15:52:04 2014'
p274
sS'response'
p275
g60
(S's\x1e\x10\x00\x00<div><table><tr><td style="font-weight:bold;vertical-align:top">body</td><td valign="top">:</td><td><div>&lt;cStringIO.StringO object at 0x7f5eb442eb58&gt;</div></td></tr><tr><td style="font-weight:bold;vertical-align:top">cookies</td><td valign="top">:</td><td><div><table><tr><td style="font-weight:bold;vertical-align:top">session_id_itproject</td><td valign="top">:</td><td><div>127.0.0.1-45b93142-f0c9-448c-b91f-0a68cebb9339<table><tr><td style="font-weight:bold;vertical-align:top">comment</td><td valign="top">:</td><td><div></div></td></tr><tr><td style="font-weight:bold;vertical-align:top">domain</td><td valign="top">:</td><td><div></div></td></tr><tr><td style="font-weight:bold;vertical-align:top">expires</td><td valign="top">:</td><td><div></div></td></tr><tr><td style="font-weight:bold;vertical-align:top">httponly</td><td valign="top">:</td><td><div></div></td></tr><tr><td style="font-weight:bold;vertical-align:top">max-age</td><td valign="top">:</td><td><div></div></td></tr><tr><td style="font-weight:bold;vertical-align:top">path</td><td valign="top">:</td><td><div>/</div></td></tr><tr><td style="font-weight:bold;vertical-align:top">secure</td><td valign="top">:</td><td><div></div></td></tr><tr><td style="font-weight:bold;vertical-align:top">version</td><td valign="top">:</td><td><div></div></td></tr></table></div></td></tr></table></div></td></tr><tr><td style="font-weight:bold;vertical-align:top">delimiters</td><td valign="top">:</td><td><div><table><tr><td><div>{{</div></td></tr><tr><td><div>}}</div></td></tr></table></div></td></tr><tr><td style="font-weight:bold;vertical-align:top">files</td><td valign="top">:</td><td><div><table></table></div></td></tr><tr><td style="font-weight:bold;vertical-align:top">flash</td><td valign="top">:</td><td><div></div></td></tr><tr><td style="font-weight:bold;vertical-align:top">generic_patterns</td><td valign="top">:</td><td><div><table></table></div></td></tr><tr><td style="font-weight:bold;vertical-align:top">headers</td><td valign="top">:</td><td><div><table><tr><td style="font-weight:bold;vertical-align:top">X-Powered-By</td><td valign="top">:</td><td><div>web2py</div></td></tr></table></div></td></tr><tr><td style="font-weight:bold;vertical-align:top">menu</td><td valign="top">:</td><td><div><table></table></div></td></tr><tr><td style="font-weight:bold;vertical-align:top">meta</td><td valign="top">:</td><td><div><table></table></div></td></tr><tr><td style="font-weight:bold;vertical-align:top">models_to_run</td><td valign="top">:</td><td><div><table><tr><td><div>^\\w+\\.py$</div></td></tr><tr><td><div>^main/\\w+\\.py$</div></td></tr><tr><td><div>^main/mails/\\w+\\.py$</div></td></tr></table></div></td></tr><tr><td style="font-weight:bold;vertical-align:top">postprocessing</td><td valign="top">:</td><td><div><table></table></div></td></tr><tr><td style="font-weight:bold;vertical-align:top">session_cookie_expires</td><td valign="top">:</td><td><div>None</div></td></tr><tr><td style="font-weight:bold;vertical-align:top">session_data_name</td><td valign="top">:</td><td><div>session_data_itproject</div></td></tr><tr><td style="font-weight:bold;vertical-align:top">session_file</td><td valign="top">:</td><td><div>None</div></td></tr><tr><td style="font-weight:bold;vertical-align:top">session_filename</td><td valign="top">:</td><td><div>/home/raj/web2py/applications/itproject/sessions/127.0.0.1-45b93142-f0c9-448c-b91f-0a68cebb9339</div></td></tr><tr><td style="font-weight:bold;vertical-align:top">session_id</td><td valign="top">:</td><td><div>127.0.0.1-45b93142-f0c9-448c-b91f-0a68cebb9339</div></td></tr><tr><td style="font-weight:bold;vertical-align:top">session_id_name</td><td valign="top">:</td><td><div>session_id_itproject</div></td></tr><tr><td style="font-weight:bold;vertical-align:top">session_new</td><td valign="top">:</td><td><div>False</div></td></tr><tr><td style="font-weight:bold;vertical-align:top">session_storage_type</td><td valign="top">:</td><td><div>file</div></td></tr><tr><td style="font-weight:bold;vertical-align:top">status</td><td valign="top">:</td><td><div>200</div></td></tr></table></div>'
tRp276
sS'locals'
p277
(dp278
S'get_lang_struct'
p279
S'<function get_lang_struct>'
p280
sS'plurals'
p281
g17
sS'langdir'
p282
S"'/home/raj/web2py/applications/itproject/languages'"
p283
sssS'traceback'
p284
S'Traceback (most recent call last):\n  File "/home/raj/web2py/gluon/main.py", line 544, in wsgibase\n    serve_controller(request, response, session)\n  File "/home/raj/web2py/gluon/main.py", line 209, in serve_controller\n    environment = build_environment(request, response, session)\n  File "/home/raj/web2py/gluon/compileapp.py", line 400, in build_environment\n    request.env.http_accept_language)\n  File "/home/raj/web2py/gluon/languages.py", line 468, in __init__\n    self.set_current_languages()\n  File "/home/raj/web2py/gluon/languages.py", line 525, in set_current_languages\n    pl_info = self.get_possible_languages_info(\'default\')\n  File "/home/raj/web2py/gluon/languages.py", line 503, in get_possible_languages_info\n    info = read_possible_languages(self.langpath)\n  File "/home/raj/web2py/gluon/languages.py", line 275, in read_possible_languages\n    lambda: read_possible_languages_aux(langpath))\n  File "/home/raj/web2py/gluon/cfs.py", line 40, in getcfs\n    return filter() if callable(filter) else \'\'\n  File "/home/raj/web2py/gluon/languages.py", line 275, in <lambda>\n    lambda: read_possible_languages_aux(langpath))\n  File "/home/raj/web2py/gluon/languages.py", line 240, in read_possible_languages_aux\n    flist = oslistdir(langdir)\nOSError: [Errno 2] No such file or directory: \'/home/raj/web2py/applications/itproject/languages\'\n'
p285
s.