(dp1
S'output'
p2
S"<type 'exceptions.AttributeError'> 'dict' object has no attribute 'id'"
p3
sS'layer'
p4
S'/home/raj/web2py/applications/ITWSII_StudentsMail/controllers/main.py'
p5
sS'code'
p6
S'def loginvalidate():\n\timport json\n\n        studentinfo = {}\n\n        studentinfo["name"]="Hitesh Sharma";\n        studentinfo["rollno"]="201301065";\n\n        studentinfo["batch"]="2K14";\n\n        return json.dumps(studentinfo)\n\n\ndef loginmy():\n\tif len(request.vars) != 0:\n\t\tsession["name"] = "None"\n\t\tsession["email"] = "None"\n\t\treturn dict(log=request.vars["logout"])\n\treturn dict(log=0)\n\ndef passthru():\n\tsession["name"] = request.vars["name"]\n\tsession["email"] = request.vars["email"]\n\treturn "proceed"\n\ndef getuser():\n\n\tname = session["name"]\n\temail = session["email"]\n\tc = db( db.student.email_id == email ).select()\n\tif len(c) == 0:\n\t\tdb.student.insert(email_id = email , name = name )\n\treturn "Added to Database!"\n\ndef mails():\n\n\timport time\n#       session.sent_time = time.strftime("%H:%M:%S");\n#       session.sent_date = time.strftime("%d-%m-%Y");\n\n\tif session["name"] == "None":\n\t\tresponse.view = \'main/pls.html\'\n\t\treturn dict()\t\n\treturn dict()\n\ndef getid():\n\tsubstr = request.vars["id"]\n\tl = len(substr)\n\trows = db(db.student.email_id[:l] == substr ).select()\n\ts = ""\n\tfor row in rows:\n\t\tif s == "":\n\t\t\ts = row.email_id\t\n\t\telse:\n\t\t\ts = s+" "+row.email_id\n\treturn str(s)\n\ndef add_TA():\n        TA = {\'anish.shankar\':\'Anish Shankar\', \'anurag.soni\':\'Anurag Soni\', \'madhavan.chetlur\':\'Madhavan Malolan\', \'rajeshkumar.gupta\':\'Rajeshkumar Gupta\', \'ayush.minocha\':\'Ayush Minocha\', \'vineet.kumar\':\'Vineet Kumar\', \'ankush.jain\':\'Ankush Jain\', \'mayank.g\':\'Mayank Gupta\', \'swapna.kidambi\':\'Swapna Kidambi\', \'vishrut.mehta\':\'Vishrut Mehta\', \'gaurav.mishra\':\'Gaurav Mishra\'}\n        for i in TA:\n                c = db(db.student.email_id == i).select();\n                if(len(c) == 0):\n                        db.student.insert(email_id=i, name=TA[i]);\n\n        d = {}\n        rows = db(db.student).select();\n        for row in rows:\n                d[row.email_id] = row.name;\n\n        return "Added TAs"\n\ndef send():\n\n\timport time\n\n        session.sent_time = time.strftime("%H:%M:%S");\n        session.sent_date = time.strftime("%d-%m-%Y");\n\trow = db(db.un).select()       \n\timport gluon.contrib.simplejson,json\n\ta = gluon.contrib.simplejson.loads(request.body.read())\n\td = a["receivers"].split(" ")\n\tsentreceivers = ""\n\td.remove("")\n        for i in d:\n   \t\tc = db(db.student.email_id == i).select();\n\t\tif(len(c) == 0):\n       \t\t\treturn "Please enter a valid e-mail address.";\n\tfor i in d:\n\t\tif a["sub"] == "":\n\t\t\ta["sub"] = "No Subject"\n\t\tsentreceivers = sentreceivers+" "+i\n        \tdb.mail.insert(sender_name=a["sender_name"],rec_email=i, sender_email=a["send_id"], subject=a["sub"],mail_message=a["msg"], sent_date=session.sent_date, sent_time=session.sent_time, tag=a["tag"], unique_field=row[0].mail_number);\n\t\n\tdb.sentmail.insert(sender_name=a["sender_name"],receivers=sentreceivers, sender_email=a["send_id"], subject=a["sub"],mail_message=a["msg"], sent_date=session.sent_date, sent_time=session.sent_time, tag=a["tag"], unique_field=row[0].mail_number)      \n\tm = {}\n\trows = db(db.mail).select();\n\tfor i in d:\n\t\tb = []\n\t\tfor row in rows:\n                \tif row.rec_email == i:\n                        \tb.append(row.id);\n\t\tm[i] = b;\n\trows = db(db.student).select();\n        for i in m:\n\t\tfor row in rows:\n                \tif row.email_id == i:\n \t                       \trow.update_record(mails=m[i]);\n\t\t\n\trow = db(db.un).select()       \n\t#time.sleep(1);\t\n\trow[0].mail_number += 1;\n\trow[0].update_record(mail_number = row[0].mail_number);\n\treturn "Mail Sent!"\n\ndef attach():\n\trow = db(db.un).select();\n\tattachme = db(db.attachments).select();\n\tmail = db(db.mail).select();\n\tfor i in mail:\n\t\tfor j in attachme:\n                       check = row[0].mail_number - 1\n                       if j.uniqueId == check and i.unique_field == check:\n                     \t\ti.update_record(attachment=j.id)\n\tmail = db(db.sentmail).select();\n        for i in mail:\n                for j in attachme:\n                        check = row[0].mail_number-1\n                        if j.uniqueId == check and i.unique_field == check:\n                                i.update_record(attachment=j.id)\n        return ""\ndef show():\n\timport json\n\tct = 1;\n        mails = {};\n        user = request.vars[\'id\'];\n        row = db(db.student.email_id == user).select(db.student.mails);\n\tif row[0][\'mails\'] == None:\n\t\treturn str(mails);\n\ta = row[0][\'mails\']\n\ta.sort(reverse=True)\n        for j in a:\n\t    if j.delt == 0:\n            \ttemp = {}\n                temp["send_id"] = j.sender_email\n                temp["sub"] = j.subject\n                temp["msg"] = j.mail_message\n                temp["sent_date"] = j.sent_date\n                temp["sent_time"] = j.sent_time\n                temp["tag"] = j.tag\n\t\ttemp["id"] = j.id\n\t\ttemp["important"] = j.important\n\t\ttemp["red"] = j.red\n\t\tif j.attachment:\n\t\t\ttemp["Name"] = j.attachment[0].Name\n\t\t\ttemp["Link"] = j.attachment[0].attachment\n\t\telse:\n\t\t\ttemp["Name"] = "None"\n\t\t\ttemp["Link"] = "None"\n                mails[ct] = temp;\n\t\tct += 1;\n        return json.dumps(mails)\n\ndef count():\n        import json\n\tc = {\'Academics\':0, \'Sports\':0, \'Events\':0, \'Cultural\':0, \'Urgent\':0, \'Lost/Found\':0, \'General\':0}\n\tname = request.get_vars[\'name\'];\n\trow = db(db.student.email_id == name).select()\n\t#for r in row:\n\t#   a = r.mails\n\n\tfor i in row[0].mails:\n\t\tif db.mail.id == i and i.red == 0:\n\t  \t\tif c.has_key(i.tag):\n\t\t\t\tc[i.tag] += 1;\t    \t\n\t\n\treturn json.dumps(c)\n\ndef sent():\n\timport json\n\tct = 1\n\tmails = {}\n\teid = request.get_vars[\'eid\']\n\trows = db(db.mail.sender_email == eid).select()\n\tfor row in rows:\n\t\td = {}\n\t\td[\'rec_email\'] = row.rec_email\n\t\td[\'sub\'] = row.subject\n\t\td[\'msg\'] = row.mail_message\n\t\td[\'tag\'] = row.tag\n\t\td[\'time\'] = row.sent_time\n\t\td[\'date\'] = row.sent_date\n\t\tmails[ct] = d;\n\t\tct += 1\n\treturn json.dumps(mails)\n\ndef sentmails():\n\n\timport json\n\temail = request.vars["email"]\n\trows = db(db.sentmail.id > 0).select()\n\trows = rows.as_list()\n\n        k = [ str(x) for x in range(1,len(rows)+1) ]\n\t\n        js = dict(zip(k,rows))\n\n        return json.dumps(js)\n\n\ndef drafts():\n        import time, gluon.contrib.simplejson\n        import json\n\n        date = time.strftime("%d-%m-%Y")\n        a = gluon.contrib.simplejson.loads(request.body.read())\n\n        receivers = a["receivers"]\n\trows = db(db.draftmail).select()\n\tflag = 0\n\tfor i in rows:\n\t\tif i.sender_name == a[\'sender_name\'] and i.receivers == receivers and i.sender_email == a[\'send_id\'] and i.subject == a[\'sub\'] and i.mail_message == a[\'msg\']:\n\t\t\treturn "already"\n\n  \tdb.draftmail.insert(sender_name=a[\'sender_name\'],receivers=receivers, sender_email=a[\'send_id\'], subject=a[\'sub\'],mail_message=a[\'msg\'], made_date=date, tag=a[\'tag\'])\n        return "Message Saved to Drafts!"\n\n\ndef getdrafts():\n\n        import time, gluon.contrib.simplejson\n        import json\n        send_id = request.vars["email"]\n\n        rows = db( db.draftmail.sender_email == send_id ).select()\n\trows = rows.as_list()\n\t\n\tk = [ x for x in range(1,len(rows)+1) ]\n\t\n\tjs = dict(zip(k,rows))\t\n       \n\treturn json.dumps(js)\n\ndef checkdrafts():\n\timport time, gluon.contrib.simplejson\n        import json\n\n        date = time.strftime("%d-%m-%Y")\n        a = gluon.contrib.simplejson.loads(request.body.read())\n\n        receivers = a[\'receivers\']\n\t\n\tdb((db.draftmail.sender_name == a[\'sender_name\'] )&(db.draftmail.receivers == receivers)&(db.draftmail.sender_email == a[\'send_id\'])&(db.draftmail.subject == a[\'sub\'] ) &( db.draftmail.mail_message == a[\'message\'])).delete()\n        \n\treturn "draft message deleted!"\n\ndef deletedrafts():\n\t\n\timport time, gluon.contrib.simplejson\n\twhole = gluon.contrib.simplejson.loads(request.body.read())\n\t\t\t\n\tfor i in whole:\n\t\n\t\tk = {}\n\t\tk = whole[i]\n\t\tdb((db.draftmail.sender_name == k[\'sender_name\'] )&(db.draftmail.receivers == k["receivers"])&(db.draftmail.sender_email == k[\'sender_email\'])&(db.draftmail.subject == k[\'subject\'] ) &( db.draftmail.mail_message == k[\'mail_message\'])).delete()\n\n        return "Deleted from Drafts!"\n\ndef deletesent():\n\n\timport time, gluon.contrib.simplejson\n        whole = gluon.contrib.simplejson.loads(request.body.read())\n\n        for i in whole:\n\n                k = {}\n                k = whole[i]\n\n                db((db.sentmail.sender_name == k[\'sender_name\'] )&(db.sentmail.receivers == k["receivers"])&(db.sentmail.sender_email == k[\'sender_email\'])&(db.sentmail.subject == k[\'subject\'] )&( db.sentmail.mail_message == k[\'mail_message\'])).delete()\n\n        return "Deleted from Sent!"\n\t\ndef attachment():\n\tId = request.vars[\'id\'];\n\tSmail = db(db.sentmail.id==Id).select()\n\tif Smail[0].attachment is not None:\n\t\tattachId = Smail[0].attachment[0].Name\n\t\tlink = Smail[0].attachment[0].attachment\n\t\treturn attachId+">"+link\n\treturn ""\ndef attachment2():\n\tId = request.vars[\'id\'];\n\tmail = db(db.mail.id==Id).select()\n\tif mail[0].attachment is not None:\n\t\tattachId = mail[0].attachment[0].Name\n\t\tlink = mail[0].attachment[0].attachment\n\t\treturn attachId+">"+link\n\treturn ""\n\ndef deleteInbox():\n\tcounter = request.vars[\'count\'];\n\tcounter = counter.split(">");\n\tcounter.pop();\n\tfor i in counter:\n\t\trow = db(db.mail.id==i).select()\n\t\trow[0].update_record(delt=1);\n\treturn ""\n\ndef search():\n\n        import json\n        ct = 1\n        result = {}\n        x = request.vars["value"];\n        name = request.vars["name"]\n        if x == \'\':\n                return json.dumps("None");\n        rows = db(db.mail.rec_email == name).select();\n        for row in rows:\n        \tif x.lower() in row.subject.lower() or x.lower() in row.sender_email.lower():\n                        mail = {}\n                        mail.id=row.id\n                        mail["subject"] = row.subject\n                        mail["sender"] = row.sender_email\n                        mail["sent_date"] = row.sent_date\n                        mail["tag"] = row.tag\n                        mail["red"] = row.red\n                        mail["important"] = row.important\n                        mail["msg"] = row.mail_message\n\t\t\tif row.attachment:\n\t\t\t\tmail["Name"] = row.attachment[0].Name\n\t\t\t\tmail["link"] = row.attachment[0].attachment\n                        result[ct] = mail\n                        ct += 1\n        return json.dumps(result);\n\n\ndef showTrash():\t\n\timport json\n\tct = 1;\n        mails = {};\n        user = request.vars[\'id\'];\n        row = db(db.student.email_id == user).select(db.student.mails);\n\tif row[0][\'mails\'] == None:\n\t\treturn str(mails);\n\ta = row[0][\'mails\']\n\ta.sort(reverse=True)\n        for j in a:\n\t\tif j.delt == 1:\n                \ttemp = {}\n                   \ttemp["send_id"] = j.sender_email\n                   \ttemp["sub"] = j.subject\n                   \ttemp["msg"] = j.mail_message\n                   \ttemp["sent_date"] = j.sent_date\n                   \ttemp["sent_time"] = j.sent_time\n                   \ttemp["tag"] = j.tag\n\t\t   \ttemp["id"] = j.id\n\t\t\tif j.attachment:\n\t\t\t\ttemp["Name"] = j.attachment[0].Name\n\t\t\t\ttemp["Link"] = j.attachment[0].attachment\n\t\t\telse:\n\t\t\t\ttemp["Name"] = "None"\n\t\t\t\ttemp["Link"] = "None"\n                   \tmails[ct] = temp;\n\t\t   \tct += 1;\n        return json.dumps(mails)\n\ndef attachmentview():\n\n\trow = db(db.un).select();\n\n\n        form = SQLFORM(db.attachments, formstyle="divs", submit_button="Attach", upload=URL(\'download\'), fields=[\'attachment\']);\n        if request.vars.attachment is not None and request.vars.attachment != "":\n                form.vars.uniqueId = row[0].mail_number\n                form.vars.Name = request.vars.attachment.filename\n        if form.accepts(request, formname=None):\n                 pass\n        return dict(form=form)\n\t\t\ndef setread():\n\ta = eval(request.vars["myjson"])\n\tb = db((db.mail.id == a["id"])&(db.mail.sent_time == a["sent_time"])&(db.mail.sent_date == a["sent_date"])&(db.mail.subject == a["sub"])&(db.mail.sender_email == a["send_id"])&(db.mail.mail_message == a["msg"])&(db.mail.tag == a["tag"])).select()\n\tb[0].update_record(red=1)\n\treturn "Done!"\n\ndef setunread():\n\ta = eval(request.vars["myjson"])\n\tb = db((db.mail.id == a["id"])&(db.mail.sent_time == a["sent_time"])&(db.mail.sent_date == a["sent_date"])&(db.mail.subject == a["sub"])&(db.mail.sender_email == a["send_id"])&(db.mail.mail_message == a["msg"])&(db.mail.tag == a["tag"])).select()\n\tb[0].update_record(red=0)\n\treturn "Done!"\n\ndef setimportant():\n\ta = eval(request.vars["myjson"])\n\tb = db((db.mail.id == a["id"])&(db.mail.sent_time == a["sent_time"])&(db.mail.sent_date == a["sent_date"])&(db.mail.subject == a["sub"])&(db.mail.sender_email == a["send_id"])&(db.mail.mail_message == a["msg"])&(db.mail.tag == a["tag"])).select()\n\tb[0].update_record(important=1)\n\treturn "Done!"\n\nresponse._vars=response._caller(search)\n'
p7
sS'snapshot'
p8
(dp9
S'exception'
p10
(dp11
S'__hash__'
p12
S"<method-wrapper '__hash__' of exceptions.AttributeError object>"
p13
sS'__setattr__'
p14
S"<method-wrapper '__setattr__' of exceptions.AttributeError object>"
p15
sS'__reduce_ex__'
p16
S'<built-in method __reduce_ex__ of exceptions.AttributeError object>'
p17
sS'__getslice__'
p18
S"<method-wrapper '__getslice__' of exceptions.AttributeError object>"
p19
sS'__getitem__'
p20
S"<method-wrapper '__getitem__' of exceptions.AttributeError object>"
p21
sS'__setstate__'
p22
S'<built-in method __setstate__ of exceptions.AttributeError object>'
p23
sS'args'
p24
S'("\'dict\' object has no attribute \'id\'",)'
p25
sS'__reduce__'
p26
S'<built-in method __reduce__ of exceptions.AttributeError object>'
p27
sS'__str__'
p28
S"<method-wrapper '__str__' of exceptions.AttributeError object>"
p29
sS'__format__'
p30
S'<built-in method __format__ of exceptions.AttributeError object>'
p31
sS'__getattribute__'
p32
S"<method-wrapper '__getattribute__' of exceptions.AttributeError object>"
p33
sS'__class__'
p34
S"<type 'exceptions.AttributeError'>"
p35
sS'__unicode__'
p36
S'<built-in method __unicode__ of exceptions.AttributeError object>'
p37
sS'__delattr__'
p38
S"<method-wrapper '__delattr__' of exceptions.AttributeError object>"
p39
sS'__subclasshook__'
p40
S'<built-in method __subclasshook__ of type object>'
p41
sS'__repr__'
p42
S"<method-wrapper '__repr__' of exceptions.AttributeError object>"
p43
sS'__dict__'
p44
S'{}'
p45
sS'__sizeof__'
p46
S'<built-in method __sizeof__ of exceptions.AttributeError object>'
p47
sS'__doc__'
p48
S"'Attribute not found.'"
p49
sS'__init__'
p50
S"<method-wrapper '__init__' of exceptions.AttributeError object>"
p51
sS'__new__'
p52
S'<built-in method __new__ of type object>'
p53
ssS'evalue'
p54
S"'dict' object has no attribute 'id'"
p55
sS'request'
p56
cgluon.html
XML_unpickle
p57
(S's\x92R\x00\x00<div><table><tr><td style="font-weight:bold;vertical-align:top">ajax</td><td valign="top">:</td><td><div>False</div></td></tr><tr><td style="font-weight:bold;vertical-align:top">application</td><td valign="top">:</td><td><div>ITWSII_StudentsMail</div></td></tr><tr><td style="font-weight:bold;vertical-align:top">args</td><td valign="top">:</td><td><div><table></table></div></td></tr><tr><td style="font-weight:bold;vertical-align:top">body</td><td valign="top">:</td><td><div>&lt;cStringIO.StringO object at 0x7fba4c1f7a40&gt;</div></td></tr><tr><td style="font-weight:bold;vertical-align:top">cid</td><td valign="top">:</td><td><div>None</div></td></tr><tr><td style="font-weight:bold;vertical-align:top">client</td><td valign="top">:</td><td><div>127.0.0.1</div></td></tr><tr><td style="font-weight:bold;vertical-align:top">controller</td><td valign="top">:</td><td><div>main</div></td></tr><tr><td style="font-weight:bold;vertical-align:top">cookies</td><td valign="top">:</td><td><div><table><tr><td style="font-weight:bold;vertical-align:top">session_id_admin</td><td valign="top">:</td><td><div>127.0.0.1-d47e2137-6375-45c0-aab7-79d585735a34<table><tr><td style="font-weight:bold;vertical-align:top">comment</td><td valign="top">:</td><td><div></div></td></tr><tr><td style="font-weight:bold;vertical-align:top">domain</td><td valign="top">:</td><td><div></div></td></tr><tr><td style="font-weight:bold;vertical-align:top">expires</td><td valign="top">:</td><td><div></div></td></tr><tr><td style="font-weight:bold;vertical-align:top">httponly</td><td valign="top">:</td><td><div></div></td></tr><tr><td style="font-weight:bold;vertical-align:top">max-age</td><td valign="top">:</td><td><div></div></td></tr><tr><td style="font-weight:bold;vertical-align:top">path</td><td valign="top">:</td><td><div></div></td></tr><tr><td style="font-weight:bold;vertical-align:top">secure</td><td valign="top">:</td><td><div></div></td></tr><tr><td style="font-weight:bold;vertical-align:top">version</td><td valign="top">:</td><td><div></div></td></tr></table></div></td></tr><tr><td style="font-weight:bold;vertical-align:top">session_id_itwsii_studentsmail</td><td valign="top">:</td><td><div>127.0.0.1-e7e63aeb-b1fe-4b60-8697-d7f9bb781855<table><tr><td style="font-weight:bold;vertical-align:top">comment</td><td valign="top">:</td><td><div></div></td></tr><tr><td style="font-weight:bold;vertical-align:top">domain</td><td valign="top">:</td><td><div></div></td></tr><tr><td style="font-weight:bold;vertical-align:top">expires</td><td valign="top">:</td><td><div></div></td></tr><tr><td style="font-weight:bold;vertical-align:top">httponly</td><td valign="top">:</td><td><div></div></td></tr><tr><td style="font-weight:bold;vertical-align:top">max-age</td><td valign="top">:</td><td><div></div></td></tr><tr><td style="font-weight:bold;vertical-align:top">path</td><td valign="top">:</td><td><div></div></td></tr><tr><td style="font-weight:bold;vertical-align:top">secure</td><td valign="top">:</td><td><div></div></td></tr><tr><td style="font-weight:bold;vertical-align:top">version</td><td valign="top">:</td><td><div></div></td></tr></table></div></td></tr></table></div></td></tr><tr><td style="font-weight:bold;vertical-align:top">env</td><td valign="top">:</td><td><div><table><tr><td style="font-weight:bold;vertical-align:top">app_folders</td><td valign="top">:</td><td><div>set([&#x27;/home/raj/web2py/applications/ITWSII_StudentsMail/&#x27;, &#x27;/home/raj/web2py/applications/admin/&#x27;, &#x27;/home/raj/web2py/applications/welcome/&#x27;])</div></td></tr><tr><td style="font-weight:bold;vertical-align:top">applications_parent</td><td valign="top">:</td><td><div>/home/raj/web2py</div></td></tr><tr><td style="font-weight:bold;vertical-align:top">cmd_args</td><td valign="top">:</td><td><div><table></table></div></td></tr><tr><td style="font-weight:bold;vertical-align:top">cmd_options</td><td valign="top">:</td><td><div>&lt;Values at 0x1845d40: {&#x27;verbose&#x27;: False, &#x27;ip&#x27;: &#x27;127.0.0.1&#x27;, &#x27;with_scheduler&#x27;: False, &#x27;ips&#x27;: [], &#x27;shutdown_timeout&#x27;: 5, &#x27;taskbar&#x27;: False, &#x27;port&#x27;: 8000, &#x27;maxthreads&#x27;: None, &#x27;softcron&#x27;: False, &#x27;server_name&#x27;: &#x27;raj-Inspiron-3537&#x27;, &#x27;bpython&#x27;: False, &#x27;nogui&#x27;: False, &#x27;pid_filename&#x27;: &#x27;httpserver.pid&#x27;, &#x27;extcron&#x27;: False, &#x27;runcron&#x27;: False, &#x27;run_system_tests&#x27;: False, &#x27;test&#x27;: None, &#x27;folder&#x27;: &#x27;/home/raj/web2py&#x27;, &#x27;config&#x27;: &#x27;&#x27;, &#x27;minthreads&#x27;: None, &#x27;winservice&#x27;: &#x27;&#x27;, &#x27;shell&#x27;: None, &#x27;run&#x27;: &#x27;&#x27;, &#x27;log_filename&#x27;: &#x27;httpserver.log&#x27;, &#x27;debuglevel&#x27;: 30, &#x27;args&#x27;: [&#x27;&#x27;], &#x27;socket_timeout&#x27;: 5, &#x27;ssl_ca_certificate&#x27;: None, &#x27;scheduler&#x27;: None, &#x27;profiler_filename&#x27;: None, &#x27;ssl_private_key&#x27;: &#x27;&#x27;, &#x27;scheduler_groups&#x27;: None, &#x27;password&#x27;: &#x27;&lt;ask&gt;&#x27;, &#x27;request_queue_size&#x27;: 5, &#x27;ssl_certificate&#x27;: &#x27;&#x27;, &#x27;cronjob&#x27;: False, &#x27;numthreads&#x27;: None, &#x27;quiet&#x27;: False, &#x27;interfaces&#x27;: None, &#x27;import_models&#x27;: False, &#x27;timeout&#x27;: 10, &#x27;plain&#x27;: False, &#x27;nobanner&#x27;: False}&gt;</div></td></tr><tr><td style="font-weight:bold;vertical-align:top">db_sessions</td><td valign="top">:</td><td><div>set([])</div></td></tr><tr><td style="font-weight:bold;vertical-align:top">debugging</td><td valign="top">:</td><td><div>False</div></td></tr><tr><td style="font-weight:bold;vertical-align:top">gluon_parent</td><td valign="top">:</td><td><div>/home/raj/web2py</div></td></tr><tr><td style="font-weight:bold;vertical-align:top">http_accept</td><td valign="top">:</td><td><div>text/html,application/xhtml+xml,application/xml;q=0.9,*/*;q=0.8</div></td></tr><tr><td style="font-weight:bold;vertical-align:top">http_accept_encoding</td><td valign="top">:</td><td><div>gzip, deflate</div></td></tr><tr><td style="font-weight:bold;vertical-align:top">http_accept_language</td><td valign="top">:</td><td><div>en-US,en;q=0.5</div></td></tr><tr><td style="font-weight:bold;vertical-align:top">http_connection</td><td valign="top">:</td><td><div>keep-alive</div></td></tr><tr><td style="font-weight:bold;vertical-align:top">http_cookie</td><td valign="top">:</td><td><div>session_id_itwsii_studentsmail=127.0.0.1-e7e63aeb-b1fe-4b60-8697-d7f9bb781855; session_id_admin=127.0.0.1-d47e2137-6375-45c0-aab7-79d585735a34</div></td></tr><tr><td style="font-weight:bold;vertical-align:top">http_host</td><td valign="top">:</td><td><div>127.0.0.1:8000</div></td></tr><tr><td style="font-weight:bold;vertical-align:top">http_referer</td><td valign="top">:</td><td><div>http://127.0.0.1:8000/ITWSII_StudentsMail/main/mails</div></td></tr><tr><td style="font-weight:bold;vertical-align:top">http_user_agent</td><td valign="top">:</td><td><div>Mozilla/5.0 (X11; Ubuntu; Linux x86_64; rv:24.0) Gecko/20100101 Firefox/24.0</div></td></tr><tr><td style="font-weight:bold;vertical-align:top">is_jython</td><td valign="top">:</td><td><div>False</div></td></tr><tr><td style="font-weight:bold;vertical-align:top">is_pypy</td><td valign="top">:</td><td><div>False</div></td></tr><tr><td style="font-weight:bold;vertical-align:top">local_hosts</td><td valign="top">:</td><td><div><table><tr><td><div>::1</div></td></tr><tr><td><div>127.0.1.1</div></td></tr><tr><td><div>raj-Inspiron-3537</div></td></tr><tr><td><div>::ffff:127.0.0.1</div></td></tr><tr><td><div>127.0.0.1</div></td></tr></table></div></td></tr><tr><td style="font-weight:bold;vertical-align:top">path_info</td><td valign="top">:</td><td><div>/ITWSII_StudentsMail/main/search</div></td></tr><tr><td style="font-weight:bold;vertical-align:top">query_string</td><td valign="top">:</td><td><div>value=h&amp;name=hitesh.sharma</div></td></tr><tr><td style="font-weight:bold;vertical-align:top">remote_addr</td><td valign="top">:</td><td><div>127.0.0.1</div></td></tr><tr><td style="font-weight:bold;vertical-align:top">remote_port</td><td valign="top">:</td><td><div>36296</div></td></tr><tr><td style="font-weight:bold;vertical-align:top">request_method</td><td valign="top">:</td><td><div>GET</div></td></tr><tr><td style="font-weight:bold;vertical-align:top">request_uri</td><td valign="top">:</td><td><div>/ITWSII_StudentsMail/main/search?value=h&amp;name=hitesh.sharma</div></td></tr><tr><td style="font-weight:bold;vertical-align:top">script_name</td><td valign="top">:</td><td><div></div></td></tr><tr><td style="font-weight:bold;vertical-align:top">server_name</td><td valign="top">:</td><td><div>raj-Inspiron-3537</div></td></tr><tr><td style="font-weight:bold;vertical-align:top">server_port</td><td valign="top">:</td><td><div>8000</div></td></tr><tr><td style="font-weight:bold;vertical-align:top">server_protocol</td><td valign="top">:</td><td><div>HTTP/1.1</div></td></tr><tr><td style="font-weight:bold;vertical-align:top">server_software</td><td valign="top">:</td><td><div>Rocket 1.2.6</div></td></tr><tr><td style="font-weight:bold;vertical-align:top">web2py_path</td><td valign="top">:</td><td><div>/home/raj/web2py</div></td></tr><tr><td style="font-weight:bold;vertical-align:top">web2py_version</td><td valign="top">:</td><td><div><table><tr><td><div>2</div></td></tr><tr><td><div>4</div></td></tr><tr><td><div>2</div></td></tr><tr><td><div>stable</div></td></tr><tr><td><div>datetime.datetime(2013, 3, 4, 3, 26, 21)</div></td></tr></table></div></td></tr><tr><td style="font-weight:bold;vertical-align:top">wsgi_errors</td><td valign="top">:</td><td><div>&lt;open file &#x27;&lt;stderr&gt;&#x27;, mode &#x27;w&#x27; at 0x7fba645081e0&gt;</div></td></tr><tr><td style="font-weight:bold;vertical-align:top">wsgi_file_wrapper</td><td valign="top">:</td><td><div>&lt;class wsgiref.util.FileWrapper at 0x18160b8&gt;</div></td></tr><tr><td style="font-weight:bold;vertical-align:top">wsgi_input</td><td valign="top">:</td><td><div>&lt;socket._fileobject object at 0x7fba3c2885d0&gt;</div></td></tr><tr><td style="font-weight:bold;vertical-align:top">wsgi_multiprocess</td><td valign="top">:</td><td><div>False</div></td></tr><tr><td style="font-weight:bold;vertical-align:top">wsgi_multithread</td><td valign="top">:</td><td><div>True</div></td></tr><tr><td style="font-weight:bold;vertical-align:top">wsgi_run_once</td><td valign="top">:</td><td><div>False</div></td></tr><tr><td style="font-weight:bold;vertical-align:top">wsgi_url_scheme</td><td valign="top">:</td><td><div>http</div></td></tr><tr><td style="font-weight:bold;vertical-align:top">wsgi_version</td><td valign="top">:</td><td><div><table><tr><td><div>1</div></td></tr><tr><td><div>0</div></td></tr></table></div></td></tr></table></div></td></tr><tr><td style="font-weight:bold;vertical-align:top">extension</td><td valign="top">:</td><td><div>html</div></td></tr><tr><td style="font-weight:bold;vertical-align:top">folder</td><td valign="top">:</td><td><div>/home/raj/web2py/applications/ITWSII_StudentsMail/</div></td></tr><tr><td style="font-weight:bold;vertical-align:top">function</td><td valign="top">:</td><td><div>search</div></td></tr><tr><td style="font-weight:bold;vertical-align:top">get_vars</td><td valign="top">:</td><td><div>h<table><tr><td style="font-weight:bold;vertical-align:top">name</td><td valign="top">:</td><td><div>hitesh.sharma</div></td></tr><tr><td style="font-weight:bold;vertical-align:top">value</td><td valign="top">:</td><td><div>h</div></td></tr></table></div></td></tr><tr><td style="font-weight:bold;vertical-align:top">global_settings</td><td valign="top">:</td><td><div><table><tr><td style="font-weight:bold;vertical-align:top">app_folders</td><td valign="top">:</td><td><div>set([&#x27;/home/raj/web2py/applications/ITWSII_StudentsMail/&#x27;, &#x27;/home/raj/web2py/applications/admin/&#x27;, &#x27;/home/raj/web2py/applications/welcome/&#x27;])</div></td></tr><tr><td style="font-weight:bold;vertical-align:top">applications_parent</td><td valign="top">:</td><td><div>/home/raj/web2py</div></td></tr><tr><td style="font-weight:bold;vertical-align:top">cmd_args</td><td valign="top">:</td><td><div><table></table></div></td></tr><tr><td style="font-weight:bold;vertical-align:top">cmd_options</td><td valign="top">:</td><td><div>&lt;Values at 0x1845d40: {&#x27;verbose&#x27;: False, &#x27;ip&#x27;: &#x27;127.0.0.1&#x27;, &#x27;with_scheduler&#x27;: False, &#x27;ips&#x27;: [], &#x27;shutdown_timeout&#x27;: 5, &#x27;taskbar&#x27;: False, &#x27;port&#x27;: 8000, &#x27;maxthreads&#x27;: None, &#x27;softcron&#x27;: False, &#x27;server_name&#x27;: &#x27;raj-Inspiron-3537&#x27;, &#x27;bpython&#x27;: False, &#x27;nogui&#x27;: False, &#x27;pid_filename&#x27;: &#x27;httpserver.pid&#x27;, &#x27;extcron&#x27;: False, &#x27;runcron&#x27;: False, &#x27;run_system_tests&#x27;: False, &#x27;test&#x27;: None, &#x27;folder&#x27;: &#x27;/home/raj/web2py&#x27;, &#x27;config&#x27;: &#x27;&#x27;, &#x27;minthreads&#x27;: None, &#x27;winservice&#x27;: &#x27;&#x27;, &#x27;shell&#x27;: None, &#x27;run&#x27;: &#x27;&#x27;, &#x27;log_filename&#x27;: &#x27;httpserver.log&#x27;, &#x27;debuglevel&#x27;: 30, &#x27;args&#x27;: [&#x27;&#x27;], &#x27;socket_timeout&#x27;: 5, &#x27;ssl_ca_certificate&#x27;: None, &#x27;scheduler&#x27;: None, &#x27;profiler_filename&#x27;: None, &#x27;ssl_private_key&#x27;: &#x27;&#x27;, &#x27;scheduler_groups&#x27;: None, &#x27;password&#x27;: &#x27;&lt;ask&gt;&#x27;, &#x27;request_queue_size&#x27;: 5, &#x27;ssl_certificate&#x27;: &#x27;&#x27;, &#x27;cronjob&#x27;: False, &#x27;numthreads&#x27;: None, &#x27;quiet&#x27;: False, &#x27;interfaces&#x27;: None, &#x27;import_models&#x27;: False, &#x27;timeout&#x27;: 10, &#x27;plain&#x27;: False, &#x27;nobanner&#x27;: False}&gt;</div></td></tr><tr><td style="font-weight:bold;vertical-align:top">db_sessions</td><td valign="top">:</td><td><div>set([])</div></td></tr><tr><td style="font-weight:bold;vertical-align:top">debugging</td><td valign="top">:</td><td><div>False</div></td></tr><tr><td style="font-weight:bold;vertical-align:top">gluon_parent</td><td valign="top">:</td><td><div>/home/raj/web2py</div></td></tr><tr><td style="font-weight:bold;vertical-align:top">is_jython</td><td valign="top">:</td><td><div>False</div></td></tr><tr><td style="font-weight:bold;vertical-align:top">is_pypy</td><td valign="top">:</td><td><div>False</div></td></tr><tr><td style="font-weight:bold;vertical-align:top">local_hosts</td><td valign="top">:</td><td><div><table><tr><td><div>::1</div></td></tr><tr><td><div>127.0.1.1</div></td></tr><tr><td><div>raj-Inspiron-3537</div></td></tr><tr><td><div>::ffff:127.0.0.1</div></td></tr><tr><td><div>127.0.0.1</div></td></tr></table></div></td></tr><tr><td style="font-weight:bold;vertical-align:top">web2py_version</td><td valign="top">:</td><td><div><table><tr><td><div>2</div></td></tr><tr><td><div>4</div></td></tr><tr><td><div>2</div></td></tr><tr><td><div>stable</div></td></tr><tr><td><div>datetime.datetime(2013, 3, 4, 3, 26, 21)</div></td></tr></table></div></td></tr></table></div></td></tr><tr><td style="font-weight:bold;vertical-align:top">is_https</td><td valign="top">:</td><td><div>False</div></td></tr><tr><td style="font-weight:bold;vertical-align:top">is_local</td><td valign="top">:</td><td><div>True</div></td></tr><tr><td style="font-weight:bold;vertical-align:top">is_restful</td><td valign="top">:</td><td><div>False</div></td></tr><tr><td style="font-weight:bold;vertical-align:top">now</td><td valign="top">:</td><td><div>datetime.datetime(2014, 4, 16, 3, 52, 12, 811559)</div></td></tr><tr><td style="font-weight:bold;vertical-align:top">post_vars</td><td valign="top">:</td><td><div><table></table></div></td></tr><tr><td style="font-weight:bold;vertical-align:top">raw_args</td><td valign="top">:</td><td><div></div></td></tr><tr><td style="font-weight:bold;vertical-align:top">raw_extension</td><td valign="top">:</td><td><div>None</div></td></tr><tr><td style="font-weight:bold;vertical-align:top">url</td><td valign="top">:</td><td><div>/ITWSII_StudentsMail/main/search</div></td></tr><tr><td style="font-weight:bold;vertical-align:top">utcnow</td><td valign="top">:</td><td><div>datetime.datetime(2014, 4, 15, 22, 22, 12, 811576)</div></td></tr><tr><td style="font-weight:bold;vertical-align:top">uuid</td><td valign="top">:</td><td><div>ITWSII_StudentsMail/127.0.0.1.2014-04-16.03-52-12.2fc3a529-84aa-4f76-b989-9c053c44e201</div></td></tr><tr><td style="font-weight:bold;vertical-align:top">vars</td><td valign="top">:</td><td><div>h<table><tr><td style="font-weight:bold;vertical-align:top">name</td><td valign="top">:</td><td><div>hitesh.sharma</div></td></tr><tr><td style="font-weight:bold;vertical-align:top">value</td><td valign="top">:</td><td><div>h</div></td></tr></table></div></td></tr><tr><td style="font-weight:bold;vertical-align:top">wsgi</td><td valign="top">:</td><td><div><table><tr><td style="font-weight:bold;vertical-align:top">environ</td><td valign="top">:</td><td><div><table><tr><td style="font-weight:bold;vertical-align:top">HTTP_ACCEPT</td><td valign="top">:</td><td><div>text/html,application/xhtml+xml,application/xml;q=0.9,*/*;q=0.8</div></td></tr><tr><td style="font-weight:bold;vertical-align:top">HTTP_ACCEPT_ENCODING</td><td valign="top">:</td><td><div>gzip, deflate</div></td></tr><tr><td style="font-weight:bold;vertical-align:top">HTTP_ACCEPT_LANGUAGE</td><td valign="top">:</td><td><div>en-US,en;q=0.5</div></td></tr><tr><td style="font-weight:bold;vertical-align:top">HTTP_CONNECTION</td><td valign="top">:</td><td><div>keep-alive</div></td></tr><tr><td style="font-weight:bold;vertical-align:top">HTTP_COOKIE</td><td valign="top">:</td><td><div>session_id_itwsii_studentsmail=127.0.0.1-e7e63aeb-b1fe-4b60-8697-d7f9bb781855; session_id_admin=127.0.0.1-d47e2137-6375-45c0-aab7-79d585735a34</div></td></tr><tr><td style="font-weight:bold;vertical-align:top">HTTP_HOST</td><td valign="top">:</td><td><div>127.0.0.1:8000</div></td></tr><tr><td style="font-weight:bold;vertical-align:top">HTTP_REFERER</td><td valign="top">:</td><td><div>http://127.0.0.1:8000/ITWSII_StudentsMail/main/mails</div></td></tr><tr><td style="font-weight:bold;vertical-align:top">HTTP_USER_AGENT</td><td valign="top">:</td><td><div>Mozilla/5.0 (X11; Ubuntu; Linux x86_64; rv:24.0) Gecko/20100101 Firefox/24.0</div></td></tr><tr><td style="font-weight:bold;vertical-align:top">PATH_INFO</td><td valign="top">:</td><td><div>/ITWSII_StudentsMail/main/search</div></td></tr><tr><td style="font-weight:bold;vertical-align:top">QUERY_STRING</td><td valign="top">:</td><td><div>value=h&amp;name=hitesh.sharma</div></td></tr><tr><td style="font-weight:bold;vertical-align:top">REMOTE_ADDR</td><td valign="top">:</td><td><div>127.0.0.1</div></td></tr><tr><td style="font-weight:bold;vertical-align:top">REMOTE_PORT</td><td valign="top">:</td><td><div>36296</div></td></tr><tr><td style="font-weight:bold;vertical-align:top">REQUEST_METHOD</td><td valign="top">:</td><td><div>GET</div></td></tr><tr><td style="font-weight:bold;vertical-align:top">REQUEST_URI</td><td valign="top">:</td><td><div>/ITWSII_StudentsMail/main/search?value=h&amp;name=hitesh.sharma</div></td></tr><tr><td style="font-weight:bold;vertical-align:top">SCRIPT_NAME</td><td valign="top">:</td><td><div></div></td></tr><tr><td style="font-weight:bold;vertical-align:top">SERVER_NAME</td><td valign="top">:</td><td><div>raj-Inspiron-3537</div></td></tr><tr><td style="font-weight:bold;vertical-align:top">SERVER_PORT</td><td valign="top">:</td><td><div>8000</div></td></tr><tr><td style="font-weight:bold;vertical-align:top">SERVER_PROTOCOL</td><td valign="top">:</td><td><div>HTTP/1.1</div></td></tr><tr><td style="font-weight:bold;vertical-align:top">SERVER_SOFTWARE</td><td valign="top">:</td><td><div>Rocket 1.2.6</div></td></tr><tr><td style="font-weight:bold;vertical-align:top">wsgi.errors</td><td valign="top">:</td><td><div>&lt;open file &#x27;&lt;stderr&gt;&#x27;, mode &#x27;w&#x27; at 0x7fba645081e0&gt;</div></td></tr><tr><td style="font-weight:bold;vertical-align:top">wsgi.file_wrapper</td><td valign="top">:</td><td><div>&lt;class wsgiref.util.FileWrapper at 0x18160b8&gt;</div></td></tr><tr><td style="font-weight:bold;vertical-align:top">wsgi.input</td><td valign="top">:</td><td><div>&lt;cStringIO.StringO object at 0x7fba4c1f7a40&gt;</div></td></tr><tr><td style="font-weight:bold;vertical-align:top">wsgi.multiprocess</td><td valign="top">:</td><td><div>False</div></td></tr><tr><td style="font-weight:bold;vertical-align:top">wsgi.multithread</td><td valign="top">:</td><td><div>True</div></td></tr><tr><td style="font-weight:bold;vertical-align:top">wsgi.run_once</td><td valign="top">:</td><td><div>False</div></td></tr><tr><td style="font-weight:bold;vertical-align:top">wsgi.url_scheme</td><td valign="top">:</td><td><div>http</div></td></tr><tr><td style="font-weight:bold;vertical-align:top">wsgi.version</td><td valign="top">:</td><td><div>1</div></td></tr></table></div></td></tr></table></div></td></tr></table></div>'
tRp58
sS'frames'
p59
(lp60
(dp61
S'file'
p62
S'/home/raj/web2py/gluon/restricted.py'
p63
sS'dump'
p64
(dp65
S'environment'
p66
S"{'A': <class 'gluon.html.A'>, 'Auth': <class 'gluon.tools.Auth'>, 'B': <class 'gluon.html.B'>, 'BEAUTIFY': <class 'gluon.html.BEAUTIFY'>, 'BODY': <class 'gluon.html.BODY'>, 'BR': <class 'gluon.html.BR'>, 'BUTTON': <class 'gluon.html.BUTTON'>, 'CAT': <class 'gluon.html.CAT'>, 'CENTER': <class 'gluon.html.CENTER'>, 'CLEANUP': <class 'gluon.validators.CLEANUP'>, ...}"
p67
sS'ccode'
p68
S'<code object <module> at 0x7fba285b5db0, file "/...ITWSII_StudentsMail/controllers/main.py", line 1>'
p69
ssS'lnum'
p70
I212
sS'lines'
p71
(dp72
I207
S'    try:'
p73
sI208
S'        if isinstance(code, types.CodeType):'
p74
sI209
S'            ccode = code'
p75
sI210
S'        else:'
p76
sI211
S'            ccode = compile2(code, layer)'
p77
sI212
S'        exec ccode in environment'
p78
sI213
S'    except HTTP:'
p79
sI214
S'        raise'
p80
sI215
S'    except RestrictedError:'
p81
sI216
S'        # do not encapsulate (obfuscate) the original RestrictedError'
p82
ssS'call'
p83
S'(code=\'def loginvalidate():\\n\\timport json\\n\\n        stude..."Done!"\\n\\nresponse._vars=response._caller(search)\\n\', environment={\'A\': <class \'gluon.html.A\'>, \'Auth\': <class \'gluon.tools.Auth\'>, \'B\': <class \'gluon.html.B\'>, \'BEAUTIFY\': <class \'gluon.html.BEAUTIFY\'>, \'BODY\': <class \'gluon.html.BODY\'>, \'BR\': <class \'gluon.html.BR\'>, \'BUTTON\': <class \'gluon.html.BUTTON\'>, \'CAT\': <class \'gluon.html.CAT\'>, \'CENTER\': <class \'gluon.html.CENTER\'>, \'CLEANUP\': <class \'gluon.validators.CLEANUP\'>, ...}, layer=\'/home/raj/web2py/applications/ITWSII_StudentsMail/controllers/main.py\')'
p84
sS'func'
p85
S'restricted'
p86
sa(dp87
g62
S'/home/raj/web2py/applications/ITWSII_StudentsMail/controllers/main.py'
p88
sg64
(dp89
sg70
I399
sg71
(dp90
I388
S'\ta = eval(request.vars["myjson"])'
p91
sI389
S'\tb = db((db.mail.id == a["id"])&(db.mail.sent_time == a["sent_time"])&(db.mail.sent_date == a["sent_date"])&(db.mail.subject == a["sub"])&(db.mail.sender_email == a["send_id"])&(db.mail.mail_message == a["msg"])&(db.mail.tag == a["tag"])).select()'
p92
sI390
S'\tb[0].update_record(red=0)'
p93
sI391
S'\treturn "Done!"'
p94
sI392
S''
sI393
S'def setimportant():'
p95
sI394
S'\ta = eval(request.vars["myjson"])'
p96
sI395
S'\tb = db((db.mail.id == a["id"])&(db.mail.sent_time == a["sent_time"])&(db.mail.sent_date == a["sent_date"])&(db.mail.subject == a["sub"])&(db.mail.sender_email == a["send_id"])&(db.mail.mail_message == a["msg"])&(db.mail.tag == a["tag"])).select()'
p97
sI396
S'\tb[0].update_record(important=1)'
p98
sI397
S'\treturn "Done!"'
p99
ssg83
S'()'
p100
sg85
S'<module>'
p101
sa(dp102
g62
S'/home/raj/web2py/gluon/globals.py'
p103
sg64
(dp104
S'self'
p105
S'undefined'
p106
sS'f'
S'<function search>'
p107
ssg70
I193
sg71
(dp108
I192
S'        self._vars = None'
p109
sI193
S'        self._caller = lambda f: f()'
p110
sI194
S'        self._view_environment = None'
p111
sI195
S'        self._custom_commit = None'
p112
sI196
S'        self._custom_rollback = None'
p113
sI197
S''
sI188
S'        self.menu = []             # used by the default view layout'
p114
sI189
S'        self.files = []            # used by web2py_ajax.html'
p115
sI190
S'        self.generic_patterns = []  # patterns to allow generic views'
p116
sI191
S"        self.delimiters = ('{{', '}}')"
p117
ssg83
S'(f=<function search>)'
p118
sg85
S'<lambda>'
p119
sa(dp120
g62
S'/home/raj/web2py/applications/ITWSII_StudentsMail/controllers/main.py'
p121
sg64
(dp122
S'mail'
p123
g45
sS'row.id'
p124
S'234'
p125
sS'mail.id'
p126
g106
sS'row'
p127
S"<Row {'unique_field': 7, 'rec_email': 'hitesh.sh...hie', 'id': 234, 'red': 1, 'attachment': [710L]}>"
p128
ssg70
I322
sg71
(dp129
I320
S'        \tif x.lower() in row.subject.lower() or x.lower() in row.sender_email.lower():'
p130
sI321
S'                        mail = {}'
p131
sI322
S'                        mail.id=row.id'
p132
sI323
S'                        mail["subject"] = row.subject'
p133
sI324
S'                        mail["sender"] = row.sender_email'
p134
sI325
S'                        mail["sent_date"] = row.sent_date'
p135
sI326
S'                        mail["tag"] = row.tag'
p136
sI317
S'                return json.dumps("None");'
p137
sI318
S'        rows = db(db.mail.rec_email == name).select();'
p138
sI319
S'        for row in rows:'
p139
ssg83
S'()'
p140
sg85
S'search'
p141
sasS'pyver'
p142
S'Python 2.7.5+: /usr/bin/python (prefix: /usr)'
p143
sS'session'
p144
g57
(S's\x0b\x02\x00\x00<div><table><tr><td style="font-weight:bold;vertical-align:top">last_orderby</td><td valign="top">:</td><td><div>None</div></td></tr><tr><td style="font-weight:bold;vertical-align:top">last_query</td><td valign="top">:</td><td><div>db.mail.id&gt;0</div></td></tr><tr><td style="font-weight:bold;vertical-align:top">sent_date</td><td valign="top">:</td><td><div>16-04-2014</div></td></tr><tr><td style="font-weight:bold;vertical-align:top">sent_time</td><td valign="top">:</td><td><div>03:39:24</div></td></tr></table></div>'
tRp145
sS'etype'
p146
S"<type 'exceptions.AttributeError'>"
p147
sS'date'
p148
S'Wed Apr 16 03:52:12 2014'
p149
sS'response'
p150
g57
(S's\x08\x12\x00\x00<div><table><tr><td style="font-weight:bold;vertical-align:top">body</td><td valign="top">:</td><td><div>&lt;cStringIO.StringO object at 0x7fba4c1f7420&gt;</div></td></tr><tr><td style="font-weight:bold;vertical-align:top">cookies</td><td valign="top">:</td><td><div><table><tr><td style="font-weight:bold;vertical-align:top">session_id_itwsii_studentsmail</td><td valign="top">:</td><td><div>127.0.0.1-e7e63aeb-b1fe-4b60-8697-d7f9bb781855<table><tr><td style="font-weight:bold;vertical-align:top">comment</td><td valign="top">:</td><td><div></div></td></tr><tr><td style="font-weight:bold;vertical-align:top">domain</td><td valign="top">:</td><td><div></div></td></tr><tr><td style="font-weight:bold;vertical-align:top">expires</td><td valign="top">:</td><td><div></div></td></tr><tr><td style="font-weight:bold;vertical-align:top">httponly</td><td valign="top">:</td><td><div></div></td></tr><tr><td style="font-weight:bold;vertical-align:top">max-age</td><td valign="top">:</td><td><div></div></td></tr><tr><td style="font-weight:bold;vertical-align:top">path</td><td valign="top">:</td><td><div>/</div></td></tr><tr><td style="font-weight:bold;vertical-align:top">secure</td><td valign="top">:</td><td><div></div></td></tr><tr><td style="font-weight:bold;vertical-align:top">version</td><td valign="top">:</td><td><div></div></td></tr></table></div></td></tr></table></div></td></tr><tr><td style="font-weight:bold;vertical-align:top">delimiters</td><td valign="top">:</td><td><div><table><tr><td><div>{{</div></td></tr><tr><td><div>}}</div></td></tr></table></div></td></tr><tr><td style="font-weight:bold;vertical-align:top">files</td><td valign="top">:</td><td><div><table></table></div></td></tr><tr><td style="font-weight:bold;vertical-align:top">flash</td><td valign="top">:</td><td><div></div></td></tr><tr><td style="font-weight:bold;vertical-align:top">generic_patterns</td><td valign="top">:</td><td><div><table><tr><td><div>*</div></td></tr></table></div></td></tr><tr><td style="font-weight:bold;vertical-align:top">headers</td><td valign="top">:</td><td><div><table><tr><td style="font-weight:bold;vertical-align:top">X-Powered-By</td><td valign="top">:</td><td><div>web2py</div></td></tr></table></div></td></tr><tr><td style="font-weight:bold;vertical-align:top">menu</td><td valign="top">:</td><td><div><table></table></div></td></tr><tr><td style="font-weight:bold;vertical-align:top">meta</td><td valign="top">:</td><td><div><table></table></div></td></tr><tr><td style="font-weight:bold;vertical-align:top">models_to_run</td><td valign="top">:</td><td><div><table><tr><td><div>^\\w+\\.py$</div></td></tr><tr><td><div>^main/\\w+\\.py$</div></td></tr><tr><td><div>^main/search/\\w+\\.py$</div></td></tr></table></div></td></tr><tr><td style="font-weight:bold;vertical-align:top">postprocessing</td><td valign="top">:</td><td><div><table></table></div></td></tr><tr><td style="font-weight:bold;vertical-align:top">session_cookie_expires</td><td valign="top">:</td><td><div>None</div></td></tr><tr><td style="font-weight:bold;vertical-align:top">session_data_name</td><td valign="top">:</td><td><div>session_data_itwsii_studentsmail</div></td></tr><tr><td style="font-weight:bold;vertical-align:top">session_file</td><td valign="top">:</td><td><div>&lt;open file &#x27;/home/raj/web2py/applications/ITWSII_StudentsMail/sessions/127.0.0.1-e7e63aeb-b1fe-4b60-8697-d7f9bb781855&#x27;, mode &#x27;rb+&#x27; at 0x7fba3c5190c0&gt;</div></td></tr><tr><td style="font-weight:bold;vertical-align:top">session_filename</td><td valign="top">:</td><td><div>/home/raj/web2py/applications/ITWSII_StudentsMail/sessions/127.0.0.1-e7e63aeb-b1fe-4b60-8697-d7f9bb781855</div></td></tr><tr><td style="font-weight:bold;vertical-align:top">session_id</td><td valign="top">:</td><td><div>127.0.0.1-e7e63aeb-b1fe-4b60-8697-d7f9bb781855</div></td></tr><tr><td style="font-weight:bold;vertical-align:top">session_id_name</td><td valign="top">:</td><td><div>session_id_itwsii_studentsmail</div></td></tr><tr><td style="font-weight:bold;vertical-align:top">session_locked</td><td valign="top">:</td><td><div>True</div></td></tr><tr><td style="font-weight:bold;vertical-align:top">session_new</td><td valign="top">:</td><td><div>False</div></td></tr><tr><td style="font-weight:bold;vertical-align:top">session_storage_type</td><td valign="top">:</td><td><div>file</div></td></tr><tr><td style="font-weight:bold;vertical-align:top">status</td><td valign="top">:</td><td><div>200</div></td></tr><tr><td style="font-weight:bold;vertical-align:top">view</td><td valign="top">:</td><td><div>main/search.html</div></td></tr></table></div>'
tRp151
sS'locals'
p152
(dp153
S'rows'
p154
S'<Rows (4)>'
p155
sS'name'
p156
S"'hitesh.sharma'"
p157
sS'json'
p158
S"<module 'json' from '/usr/lib/python2.7/json/__init__.pyc'>"
p159
sS'result'
p160
g45
sS'mail'
p161
g45
sS'x'
S"'h'"
p162
sS'row'
p163
S"<Row {'unique_field': 7, 'rec_email': 'hitesh.sh...hie', 'id': 234, 'red': 1, 'attachment': [710L]}>"
p164
sS'ct'
p165
S'1'
sssS'traceback'
p166
S'Traceback (most recent call last):\n  File "/home/raj/web2py/gluon/restricted.py", line 212, in restricted\n    exec ccode in environment\n  File "/home/raj/web2py/applications/ITWSII_StudentsMail/controllers/main.py", line 399, in <module>\n  File "/home/raj/web2py/gluon/globals.py", line 193, in <lambda>\n    self._caller = lambda f: f()\n  File "/home/raj/web2py/applications/ITWSII_StudentsMail/controllers/main.py", line 322, in search\n    mail.id=row.id\nAttributeError: \'dict\' object has no attribute \'id\'\n'
p167
s.