(dp1
S'output'
p2
S"<class 'urllib2.URLError'> <urlopen error [Errno -2] Name or service not known>"
p3
sS'layer'
p4
S'/home/hitesh96db/Documents/web2py/applications/itproject/controllers/main.py'
p5
sS'code'
p6
S'tempname = "Unknown guy"\ntempflag = 0\n\ndef loginvalidate():\n#\treturn "email %s password %s" % ( request.vars["email"],request.vars["password"] )\n\timport mechanize\n\timport os\n\timport re\n\timport json\n\n\tbr = mechanize.Browser()\n\tbr.set_proxies({"ftp":"proxy.iiit.ac.in:8080","http":"proxy.iiit.ac.in:8080"})\n\tbr.set_handle_equiv(False)\n\tbr.set_handle_robots(False)\n\tbr.set_handle_refresh(False)\n\tbr.addheaders = [ (\'User-Agent\',\'Firefox\') ]\n\n\tbr.open("https://isas.iiit.ac.in/index.php")\n\tresponse1 = br.response()\n\t#print response1.geturl()\n\t#print response1.info()\n\n\tbr.form = list(br.forms())[0]\n\t#for control in br.form.controls:\n\t#       print control.name\n\n\n\tbr["StUdent"] = request.vars["email"]\n\tbr["password"] = request.vars["password"]\n\t#br["rno"]="2013"\n\t#br["grade"]="A"\n\n\tresponse1 = br.submit()\n\tf = open(\'isas.html\', \'w\')\n\tk = response1.read()\n\tf.write(k)\n\tf.close()\n\n\tf = open("isas.html","r")\n\tl = f.readlines()\n\tf = open("isas.html","r")\n\tdoc = f.read()\n\n\tstudentinfo = {}\n\n\tif "Incorrect" in doc:\n\t        studentinfo["name"] = "unknown"\n\t\treturn json.dumps(studentinfo)\n\tfor i in l:\n\t        if "Name" in i:\n \t               line1 = i\n\t        if "Batch" in i:\n\t                line2 = i\n\t                break\n\n\tline1 = line1.strip()\n\tline2 = line2.strip()\n\n\tpass2 = re.findall("<b>.{1,30}<\\/b\\>",line1)\n\tname = pass2[0][3:-4].lower().title()\n\trollno = pass2[1][3:-5]\n\n\tstudentinfo = {}\n\n\tstudentinfo["name"]=name;\n\tstudentinfo["rollno"]=rollno;\n\t\n\tpass2 = re.findall("<b>.{1,30}<\\/b\\>",line2)\n\tbatch = pass2[0][3:-4]\n\tno = pass2[1][3:-4]\n\n\tstudentinfo["batch"]=batch;\n\n\treturn json.dumps(studentinfo)\n\n\ndef loginmy():\n\tif len(request.vars) != 0:\n\t\treturn dict(log=request.vars["logout"])\n\treturn dict(log=0)\n\ndef passthru():\n\ttempname = request.vars["name"]\n\ttempflag = 1\n\treturn tempname\n\ndef mails():\n\treturn dict(name=tempname)\n\nresponse._vars=response._caller(loginvalidate)\n'
p7
sS'snapshot'
p8
(dp9
S'exception'
p10
(dp11
S'__module__'
p12
S"'urllib2'"
p13
sS'__getslice__'
p14
S"<method-wrapper '__getslice__' of URLError object>"
p15
sS'__str__'
p16
S"<bound method URLError.__str__ of URLError(gaierror(-2, 'Name or service not known'),)>"
p17
sS'__reduce__'
p18
S'<built-in method __reduce__ of URLError object>'
p19
sS'__dict__'
p20
S"{'reason': gaierror(-2, 'Name or service not known')}"
p21
sS'__sizeof__'
p22
S'<built-in method __sizeof__ of URLError object>'
p23
sS'__weakref__'
p24
S'None'
p25
sS'__init__'
p26
S"<bound method URLError.__init__ of URLError(gaierror(-2, 'Name or service not known'),)>"
p27
sS'__setattr__'
p28
S"<method-wrapper '__setattr__' of URLError object>"
p29
sS'__reduce_ex__'
p30
S'<built-in method __reduce_ex__ of URLError object>'
p31
sS'__new__'
p32
S'<built-in method __new__ of type object>'
p33
sS'errno'
p34
S'None'
p35
sS'__format__'
p36
S'<built-in method __format__ of URLError object>'
p37
sS'__class__'
p38
S"<class 'urllib2.URLError'>"
p39
sS'filename'
p40
S'None'
p41
sS'__doc__'
p42
S'None'
p43
sS'__getitem__'
p44
S"<method-wrapper '__getitem__' of URLError object>"
p45
sS'__setstate__'
p46
S'<built-in method __setstate__ of URLError object>'
p47
sS'__getattribute__'
p48
S"<method-wrapper '__getattribute__' of URLError object>"
p49
sS'args'
p50
S"(gaierror(-2, 'Name or service not known'),)"
p51
sS'reason'
p52
S"gaierror(-2, 'Name or service not known')"
p53
sS'__subclasshook__'
p54
S'<built-in method __subclasshook__ of type object>'
p55
sS'__unicode__'
p56
S'<built-in method __unicode__ of URLError object>'
p57
sS'strerror'
p58
S'None'
p59
sS'__delattr__'
p60
S"<method-wrapper '__delattr__' of URLError object>"
p61
sS'__repr__'
p62
S"<method-wrapper '__repr__' of URLError object>"
p63
sS'__hash__'
p64
S"<method-wrapper '__hash__' of URLError object>"
p65
ssS'evalue'
p66
S'<urlopen error [Errno -2] Name or service not known>'
p67
sS'request'
p68
cgluon.html
XML_unpickle
p69
(S's\xc8U\x00\x00<div><table><tr><td style="font-weight:bold;vertical-align:top;">ajax</td><td style="vertical-align:top;">:</td><td><div>False</div></td></tr><tr><td style="font-weight:bold;vertical-align:top;">application</td><td style="vertical-align:top;">:</td><td><div>itproject</div></td></tr><tr><td style="font-weight:bold;vertical-align:top;">args</td><td style="vertical-align:top;">:</td><td><div><table></table></div></td></tr><tr><td style="font-weight:bold;vertical-align:top;">cid</td><td style="vertical-align:top;">:</td><td><div>None</div></td></tr><tr><td style="font-weight:bold;vertical-align:top;">client</td><td style="vertical-align:top;">:</td><td><div>127.0.0.1</div></td></tr><tr><td style="font-weight:bold;vertical-align:top;">controller</td><td style="vertical-align:top;">:</td><td><div>main</div></td></tr><tr><td style="font-weight:bold;vertical-align:top;">cookies</td><td style="vertical-align:top;">:</td><td><div><table><tr><td style="font-weight:bold;vertical-align:top;">session_id_itproject</td><td style="vertical-align:top;">:</td><td><div>127.0.0.1-87b20b80-c98a-4b4f-8b24-ed72ad2bb0d9<table><tr><td style="font-weight:bold;vertical-align:top;">comment</td><td style="vertical-align:top;">:</td><td><div></div></td></tr><tr><td style="font-weight:bold;vertical-align:top;">domain</td><td style="vertical-align:top;">:</td><td><div></div></td></tr><tr><td style="font-weight:bold;vertical-align:top;">expires</td><td style="vertical-align:top;">:</td><td><div></div></td></tr><tr><td style="font-weight:bold;vertical-align:top;">httponly</td><td style="vertical-align:top;">:</td><td><div></div></td></tr><tr><td style="font-weight:bold;vertical-align:top;">max-age</td><td style="vertical-align:top;">:</td><td><div></div></td></tr><tr><td style="font-weight:bold;vertical-align:top;">path</td><td style="vertical-align:top;">:</td><td><div></div></td></tr><tr><td style="font-weight:bold;vertical-align:top;">secure</td><td style="vertical-align:top;">:</td><td><div></div></td></tr><tr><td style="font-weight:bold;vertical-align:top;">version</td><td style="vertical-align:top;">:</td><td><div></div></td></tr></table></div></td></tr></table></div></td></tr><tr><td style="font-weight:bold;vertical-align:top;">env</td><td style="vertical-align:top;">:</td><td><div><table><tr><td style="font-weight:bold;vertical-align:top;">CONTENT_LENGTH</td><td style="vertical-align:top;">:</td><td><div>37</div></td></tr><tr><td style="font-weight:bold;vertical-align:top;">CONTENT_TYPE</td><td style="vertical-align:top;">:</td><td><div>application/x-www-form-urlencoded; charset=UTF-8</div></td></tr><tr><td style="font-weight:bold;vertical-align:top;">HTTP_ACCEPT</td><td style="vertical-align:top;">:</td><td><div>text/html,application/xhtml+xml,application/xml;q=0.9,*/*;q=0.8</div></td></tr><tr><td style="font-weight:bold;vertical-align:top;">HTTP_ACCEPT_ENCODING</td><td style="vertical-align:top;">:</td><td><div>gzip, deflate</div></td></tr><tr><td style="font-weight:bold;vertical-align:top;">HTTP_ACCEPT_LANGUAGE</td><td style="vertical-align:top;">:</td><td><div>en-US,en;q=0.5</div></td></tr><tr><td style="font-weight:bold;vertical-align:top;">HTTP_CACHE_CONTROL</td><td style="vertical-align:top;">:</td><td><div>no-cache</div></td></tr><tr><td style="font-weight:bold;vertical-align:top;">HTTP_CONNECTION</td><td style="vertical-align:top;">:</td><td><div>keep-alive</div></td></tr><tr><td style="font-weight:bold;vertical-align:top;">HTTP_CONTENT_LENGTH</td><td style="vertical-align:top;">:</td><td><div>37</div></td></tr><tr><td style="font-weight:bold;vertical-align:top;">HTTP_CONTENT_TYPE</td><td style="vertical-align:top;">:</td><td><div>application/x-www-form-urlencoded; charset=UTF-8</div></td></tr><tr><td style="font-weight:bold;vertical-align:top;">HTTP_COOKIE</td><td style="vertical-align:top;">:</td><td><div>session_id_itproject=127.0.0.1-87b20b80-c98a-4b4f-8b24-ed72ad2bb0d9</div></td></tr><tr><td style="font-weight:bold;vertical-align:top;">HTTP_HOST</td><td style="vertical-align:top;">:</td><td><div>127.0.0.1:8010</div></td></tr><tr><td style="font-weight:bold;vertical-align:top;">HTTP_PRAGMA</td><td style="vertical-align:top;">:</td><td><div>no-cache</div></td></tr><tr><td style="font-weight:bold;vertical-align:top;">HTTP_REFERER</td><td style="vertical-align:top;">:</td><td><div>http://127.0.0.1:8010/itproject/main/loginmy</div></td></tr><tr><td style="font-weight:bold;vertical-align:top;">HTTP_USER_AGENT</td><td style="vertical-align:top;">:</td><td><div>Mozilla/5.0 (X11; Ubuntu; Linux x86_64; rv:27.0) Gecko/20100101 Firefox/27.0</div></td></tr><tr><td style="font-weight:bold;vertical-align:top;">PATH_INFO</td><td style="vertical-align:top;">:</td><td><div>/itproject/main/loginvalidate</div></td></tr><tr><td style="font-weight:bold;vertical-align:top;">QUERY_STRING</td><td style="vertical-align:top;">:</td><td><div></div></td></tr><tr><td style="font-weight:bold;vertical-align:top;">REMOTE_ADDR</td><td style="vertical-align:top;">:</td><td><div>127.0.0.1</div></td></tr><tr><td style="font-weight:bold;vertical-align:top;">REMOTE_PORT</td><td style="vertical-align:top;">:</td><td><div>47717</div></td></tr><tr><td style="font-weight:bold;vertical-align:top;">REQUEST_METHOD</td><td style="vertical-align:top;">:</td><td><div>POST</div></td></tr><tr><td style="font-weight:bold;vertical-align:top;">SCRIPT_NAME</td><td style="vertical-align:top;">:</td><td><div></div></td></tr><tr><td style="font-weight:bold;vertical-align:top;">SERVER_NAME</td><td style="vertical-align:top;">:</td><td><div>Beast</div></td></tr><tr><td style="font-weight:bold;vertical-align:top;">SERVER_PORT</td><td style="vertical-align:top;">:</td><td><div>8010</div></td></tr><tr><td style="font-weight:bold;vertical-align:top;">SERVER_PROTOCOL</td><td style="vertical-align:top;">:</td><td><div>HTTP/1.1</div></td></tr><tr><td style="font-weight:bold;vertical-align:top;">SERVER_SOFTWARE</td><td style="vertical-align:top;">:</td><td><div>Rocket 1.2.6</div></td></tr><tr><td style="font-weight:bold;vertical-align:top;">app_folders</td><td style="vertical-align:top;">:</td><td><div>set([&#x27;/home/hitesh96db/Documents/web2py/applications/itproject/&#x27;])</div></td></tr><tr><td style="font-weight:bold;vertical-align:top;">applications_parent</td><td style="vertical-align:top;">:</td><td><div>/home/hitesh96db/Documents/web2py</div></td></tr><tr><td style="font-weight:bold;vertical-align:top;">cmd_args</td><td style="vertical-align:top;">:</td><td><div><table></table></div></td></tr><tr><td style="font-weight:bold;vertical-align:top;">cmd_options</td><td style="vertical-align:top;">:</td><td><div>&lt;Values at 0x213eab8: {&#x27;verbose&#x27;: False, &#x27;ip&#x27;: &#x27;127.0.0.1&#x27;, &#x27;debuglevel&#x27;: 30, &#x27;with_scheduler&#x27;: False, &#x27;ips&#x27;: [&#x27;127.0.1.1&#x27;], &#x27;shutdown_timeout&#x27;: 5, &#x27;taskbar&#x27;: False, &#x27;with_coverage&#x27;: False, &#x27;port&#x27;: 8000, &#x27;maxthreads&#x27;: None, &#x27;softcron&#x27;: False, &#x27;server_name&#x27;: &#x27;Beast&#x27;, &#x27;bpython&#x27;: False, &#x27;nogui&#x27;: False, &#x27;pid_filename&#x27;: &#x27;httpserver.pid&#x27;, &#x27;extcron&#x27;: False, &#x27;runcron&#x27;: False, &#x27;run_system_tests&#x27;: False, &#x27;test&#x27;: None, &#x27;folder&#x27;: &#x27;/home/hitesh96db/Documents/web2py&#x27;, &#x27;config&#x27;: &#x27;&#x27;, &#x27;minthreads&#x27;: None, &#x27;shell&#x27;: None, &#x27;run&#x27;: &#x27;&#x27;, &#x27;log_filename&#x27;: &#x27;httpserver.log&#x27;, &#x27;profiler_dir&#x27;: None, &#x27;args&#x27;: [&#x27;&#x27;], &#x27;socket_timeout&#x27;: 5, &#x27;ssl_ca_certificate&#x27;: None, &#x27;scheduler&#x27;: None, &#x27;interfaces&#x27;: None, &#x27;ssl_private_key&#x27;: &#x27;&#x27;, &#x27;scheduler_groups&#x27;: None, &#x27;password&#x27;: &#x27;&lt;ask&gt;&#x27;, &#x27;request_queue_size&#x27;: 5, &#x27;ssl_certificate&#x27;: &#x27;&#x27;, &#x27;cronjob&#x27;: False, &#x27;numthreads&#x27;: None, &#x27;quiet&#x27;: False, &#x27;import_models&#x27;: False, &#x27;timeout&#x27;: 10, &#x27;plain&#x27;: False, &#x27;nobanner&#x27;: False}&gt;</div></td></tr><tr><td style="font-weight:bold;vertical-align:top;">content_length</td><td style="vertical-align:top;">:</td><td><div>37</div></td></tr><tr><td style="font-weight:bold;vertical-align:top;">content_type</td><td style="vertical-align:top;">:</td><td><div>application/x-www-form-urlencoded; charset=UTF-8</div></td></tr><tr><td style="font-weight:bold;vertical-align:top;">db_sessions</td><td style="vertical-align:top;">:</td><td><div>set([])</div></td></tr><tr><td style="font-weight:bold;vertical-align:top;">debugging</td><td style="vertical-align:top;">:</td><td><div>False</div></td></tr><tr><td style="font-weight:bold;vertical-align:top;">gluon_parent</td><td style="vertical-align:top;">:</td><td><div>/home/hitesh96db/Documents/web2py</div></td></tr><tr><td style="font-weight:bold;vertical-align:top;">http_accept</td><td style="vertical-align:top;">:</td><td><div>text/html,application/xhtml+xml,application/xml;q=0.9,*/*;q=0.8</div></td></tr><tr><td style="font-weight:bold;vertical-align:top;">http_accept_encoding</td><td style="vertical-align:top;">:</td><td><div>gzip, deflate</div></td></tr><tr><td style="font-weight:bold;vertical-align:top;">http_accept_language</td><td style="vertical-align:top;">:</td><td><div>en-US,en;q=0.5</div></td></tr><tr><td style="font-weight:bold;vertical-align:top;">http_cache_control</td><td style="vertical-align:top;">:</td><td><div>no-cache</div></td></tr><tr><td style="font-weight:bold;vertical-align:top;">http_connection</td><td style="vertical-align:top;">:</td><td><div>keep-alive</div></td></tr><tr><td style="font-weight:bold;vertical-align:top;">http_content_length</td><td style="vertical-align:top;">:</td><td><div>37</div></td></tr><tr><td style="font-weight:bold;vertical-align:top;">http_content_type</td><td style="vertical-align:top;">:</td><td><div>application/x-www-form-urlencoded; charset=UTF-8</div></td></tr><tr><td style="font-weight:bold;vertical-align:top;">http_cookie</td><td style="vertical-align:top;">:</td><td><div>session_id_itproject=127.0.0.1-87b20b80-c98a-4b4f-8b24-ed72ad2bb0d9</div></td></tr><tr><td style="font-weight:bold;vertical-align:top;">http_host</td><td style="vertical-align:top;">:</td><td><div>127.0.0.1:8010</div></td></tr><tr><td style="font-weight:bold;vertical-align:top;">http_pragma</td><td style="vertical-align:top;">:</td><td><div>no-cache</div></td></tr><tr><td style="font-weight:bold;vertical-align:top;">http_referer</td><td style="vertical-align:top;">:</td><td><div>http://127.0.0.1:8010/itproject/main/loginmy</div></td></tr><tr><td style="font-weight:bold;vertical-align:top;">http_user_agent</td><td style="vertical-align:top;">:</td><td><div>Mozilla/5.0 (X11; Ubuntu; Linux x86_64; rv:27.0) Gecko/20100101 Firefox/27.0</div></td></tr><tr><td style="font-weight:bold;vertical-align:top;">is_jython</td><td style="vertical-align:top;">:</td><td><div>False</div></td></tr><tr><td style="font-weight:bold;vertical-align:top;">is_pypy</td><td style="vertical-align:top;">:</td><td><div>False</div></td></tr><tr><td style="font-weight:bold;vertical-align:top;">is_source</td><td style="vertical-align:top;">:</td><td><div>True</div></td></tr><tr><td style="font-weight:bold;vertical-align:top;">local_hosts</td><td style="vertical-align:top;">:</td><td><div><table><tr><td><div>Beast</div></td></tr><tr><td><div>::1</div></td></tr><tr><td><div>127.0.1.1</div></td></tr><tr><td><div>::ffff:127.0.0.1</div></td></tr><tr><td><div>127.0.0.1</div></td></tr></table></div></td></tr><tr><td style="font-weight:bold;vertical-align:top;">path_info</td><td style="vertical-align:top;">:</td><td><div>/itproject/main/loginvalidate</div></td></tr><tr><td style="font-weight:bold;vertical-align:top;">query_string</td><td style="vertical-align:top;">:</td><td><div></div></td></tr><tr><td style="font-weight:bold;vertical-align:top;">remote_addr</td><td style="vertical-align:top;">:</td><td><div>127.0.0.1</div></td></tr><tr><td style="font-weight:bold;vertical-align:top;">remote_port</td><td style="vertical-align:top;">:</td><td><div>47717</div></td></tr><tr><td style="font-weight:bold;vertical-align:top;">request_method</td><td style="vertical-align:top;">:</td><td><div>POST</div></td></tr><tr><td style="font-weight:bold;vertical-align:top;">request_uri</td><td style="vertical-align:top;">:</td><td><div>/itproject/main/loginvalidate</div></td></tr><tr><td style="font-weight:bold;vertical-align:top;">script_name</td><td style="vertical-align:top;">:</td><td><div></div></td></tr><tr><td style="font-weight:bold;vertical-align:top;">server_name</td><td style="vertical-align:top;">:</td><td><div>Beast</div></td></tr><tr><td style="font-weight:bold;vertical-align:top;">server_port</td><td style="vertical-align:top;">:</td><td><div>8010</div></td></tr><tr><td style="font-weight:bold;vertical-align:top;">server_protocol</td><td style="vertical-align:top;">:</td><td><div>HTTP/1.1</div></td></tr><tr><td style="font-weight:bold;vertical-align:top;">server_software</td><td style="vertical-align:top;">:</td><td><div>Rocket 1.2.6</div></td></tr><tr><td style="font-weight:bold;vertical-align:top;">web2py_path</td><td style="vertical-align:top;">:</td><td><div>/home/hitesh96db/Documents/web2py</div></td></tr><tr><td style="font-weight:bold;vertical-align:top;">web2py_version</td><td style="vertical-align:top;">:</td><td><div>2.9.5-stable+timestamp.2014.03.16.02.35.39</div></td></tr><tr><td style="font-weight:bold;vertical-align:top;">wsgi.errors</td><td style="vertical-align:top;">:</td><td><div>&lt;open file &#x27;&lt;stderr&gt;&#x27;, mode &#x27;w&#x27; at 0x7ffd1fa3c270&gt;</div></td></tr><tr><td style="font-weight:bold;vertical-align:top;">wsgi.file_wrapper</td><td style="vertical-align:top;">:</td><td><div>&lt;class wsgiref.util.FileWrapper at 0x20aa390&gt;</div></td></tr><tr><td style="font-weight:bold;vertical-align:top;">wsgi.input</td><td style="vertical-align:top;">:</td><td><div>&lt;socket._fileobject object at 0x2154850&gt;</div></td></tr><tr><td style="font-weight:bold;vertical-align:top;">wsgi.multiprocess</td><td style="vertical-align:top;">:</td><td><div>False</div></td></tr><tr><td style="font-weight:bold;vertical-align:top;">wsgi.multithread</td><td style="vertical-align:top;">:</td><td><div>True</div></td></tr><tr><td style="font-weight:bold;vertical-align:top;">wsgi.run_once</td><td style="vertical-align:top;">:</td><td><div>False</div></td></tr><tr><td style="font-weight:bold;vertical-align:top;">wsgi.url_scheme</td><td style="vertical-align:top;">:</td><td><div>http</div></td></tr><tr><td style="font-weight:bold;vertical-align:top;">wsgi.version</td><td style="vertical-align:top;">:</td><td><div><table><tr><td><div>1</div></td></tr><tr><td><div>0</div></td></tr></table></div></td></tr><tr><td style="font-weight:bold;vertical-align:top;">wsgi_errors</td><td style="vertical-align:top;">:</td><td><div>&lt;open file &#x27;&lt;stderr&gt;&#x27;, mode &#x27;w&#x27; at 0x7ffd1fa3c270&gt;</div></td></tr><tr><td style="font-weight:bold;vertical-align:top;">wsgi_file_wrapper</td><td style="vertical-align:top;">:</td><td><div>&lt;class wsgiref.util.FileWrapper at 0x20aa390&gt;</div></td></tr><tr><td style="font-weight:bold;vertical-align:top;">wsgi_input</td><td style="vertical-align:top;">:</td><td><div>&lt;socket._fileobject object at 0x2154850&gt;</div></td></tr><tr><td style="font-weight:bold;vertical-align:top;">wsgi_multiprocess</td><td style="vertical-align:top;">:</td><td><div>False</div></td></tr><tr><td style="font-weight:bold;vertical-align:top;">wsgi_multithread</td><td style="vertical-align:top;">:</td><td><div>True</div></td></tr><tr><td style="font-weight:bold;vertical-align:top;">wsgi_run_once</td><td style="vertical-align:top;">:</td><td><div>False</div></td></tr><tr><td style="font-weight:bold;vertical-align:top;">wsgi_url_scheme</td><td style="vertical-align:top;">:</td><td><div>http</div></td></tr><tr><td style="font-weight:bold;vertical-align:top;">wsgi_version</td><td style="vertical-align:top;">:</td><td><div><table><tr><td><div>1</div></td></tr><tr><td><div>0</div></td></tr></table></div></td></tr></table></div></td></tr><tr><td style="font-weight:bold;vertical-align:top;">extension</td><td style="vertical-align:top;">:</td><td><div>html</div></td></tr><tr><td style="font-weight:bold;vertical-align:top;">folder</td><td style="vertical-align:top;">:</td><td><div>/home/hitesh96db/Documents/web2py/applications/itproject/</div></td></tr><tr><td style="font-weight:bold;vertical-align:top;">function</td><td style="vertical-align:top;">:</td><td><div>loginvalidate</div></td></tr><tr><td style="font-weight:bold;vertical-align:top;">global_settings</td><td style="vertical-align:top;">:</td><td><div><table><tr><td style="font-weight:bold;vertical-align:top;">app_folders</td><td style="vertical-align:top;">:</td><td><div>set([&#x27;/home/hitesh96db/Documents/web2py/applications/itproject/&#x27;])</div></td></tr><tr><td style="font-weight:bold;vertical-align:top;">applications_parent</td><td style="vertical-align:top;">:</td><td><div>/home/hitesh96db/Documents/web2py</div></td></tr><tr><td style="font-weight:bold;vertical-align:top;">cmd_args</td><td style="vertical-align:top;">:</td><td><div><table></table></div></td></tr><tr><td style="font-weight:bold;vertical-align:top;">cmd_options</td><td style="vertical-align:top;">:</td><td><div>&lt;Values at 0x213eab8: {&#x27;verbose&#x27;: False, &#x27;ip&#x27;: &#x27;127.0.0.1&#x27;, &#x27;debuglevel&#x27;: 30, &#x27;with_scheduler&#x27;: False, &#x27;ips&#x27;: [&#x27;127.0.1.1&#x27;], &#x27;shutdown_timeout&#x27;: 5, &#x27;taskbar&#x27;: False, &#x27;with_coverage&#x27;: False, &#x27;port&#x27;: 8000, &#x27;maxthreads&#x27;: None, &#x27;softcron&#x27;: False, &#x27;server_name&#x27;: &#x27;Beast&#x27;, &#x27;bpython&#x27;: False, &#x27;nogui&#x27;: False, &#x27;pid_filename&#x27;: &#x27;httpserver.pid&#x27;, &#x27;extcron&#x27;: False, &#x27;runcron&#x27;: False, &#x27;run_system_tests&#x27;: False, &#x27;test&#x27;: None, &#x27;folder&#x27;: &#x27;/home/hitesh96db/Documents/web2py&#x27;, &#x27;config&#x27;: &#x27;&#x27;, &#x27;minthreads&#x27;: None, &#x27;shell&#x27;: None, &#x27;run&#x27;: &#x27;&#x27;, &#x27;log_filename&#x27;: &#x27;httpserver.log&#x27;, &#x27;profiler_dir&#x27;: None, &#x27;args&#x27;: [&#x27;&#x27;], &#x27;socket_timeout&#x27;: 5, &#x27;ssl_ca_certificate&#x27;: None, &#x27;scheduler&#x27;: None, &#x27;interfaces&#x27;: None, &#x27;ssl_private_key&#x27;: &#x27;&#x27;, &#x27;scheduler_groups&#x27;: None, &#x27;password&#x27;: &#x27;&lt;ask&gt;&#x27;, &#x27;request_queue_size&#x27;: 5, &#x27;ssl_certificate&#x27;: &#x27;&#x27;, &#x27;cronjob&#x27;: False, &#x27;numthreads&#x27;: None, &#x27;quiet&#x27;: False, &#x27;import_models&#x27;: False, &#x27;timeout&#x27;: 10, &#x27;plain&#x27;: False, &#x27;nobanner&#x27;: False}&gt;</div></td></tr><tr><td style="font-weight:bold;vertical-align:top;">db_sessions</td><td style="vertical-align:top;">:</td><td><div>set([])</div></td></tr><tr><td style="font-weight:bold;vertical-align:top;">debugging</td><td style="vertical-align:top;">:</td><td><div>False</div></td></tr><tr><td style="font-weight:bold;vertical-align:top;">gluon_parent</td><td style="vertical-align:top;">:</td><td><div>/home/hitesh96db/Documents/web2py</div></td></tr><tr><td style="font-weight:bold;vertical-align:top;">is_jython</td><td style="vertical-align:top;">:</td><td><div>False</div></td></tr><tr><td style="font-weight:bold;vertical-align:top;">is_pypy</td><td style="vertical-align:top;">:</td><td><div>False</div></td></tr><tr><td style="font-weight:bold;vertical-align:top;">is_source</td><td style="vertical-align:top;">:</td><td><div>True</div></td></tr><tr><td style="font-weight:bold;vertical-align:top;">local_hosts</td><td style="vertical-align:top;">:</td><td><div><table><tr><td><div>Beast</div></td></tr><tr><td><div>::1</div></td></tr><tr><td><div>127.0.1.1</div></td></tr><tr><td><div>::ffff:127.0.0.1</div></td></tr><tr><td><div>127.0.0.1</div></td></tr></table></div></td></tr><tr><td style="font-weight:bold;vertical-align:top;">web2py_version</td><td style="vertical-align:top;">:</td><td><div>2.9.5-stable+timestamp.2014.03.16.02.35.39</div></td></tr></table></div></td></tr><tr><td style="font-weight:bold;vertical-align:top;">is_https</td><td style="vertical-align:top;">:</td><td><div>False</div></td></tr><tr><td style="font-weight:bold;vertical-align:top;">is_local</td><td style="vertical-align:top;">:</td><td><div>True</div></td></tr><tr><td style="font-weight:bold;vertical-align:top;">is_restful</td><td style="vertical-align:top;">:</td><td><div>False</div></td></tr><tr><td style="font-weight:bold;vertical-align:top;">now</td><td style="vertical-align:top;">:</td><td><div>datetime.datetime(2014, 3, 26, 14, 13, 7, 371609)</div></td></tr><tr><td style="font-weight:bold;vertical-align:top;">raw_args</td><td style="vertical-align:top;">:</td><td><div></div></td></tr><tr><td style="font-weight:bold;vertical-align:top;">raw_extension</td><td style="vertical-align:top;">:</td><td><div>None</div></td></tr><tr><td style="font-weight:bold;vertical-align:top;">url</td><td style="vertical-align:top;">:</td><td><div>/itproject/main/loginvalidate</div></td></tr><tr><td style="font-weight:bold;vertical-align:top;">utcnow</td><td style="vertical-align:top;">:</td><td><div>datetime.datetime(2014, 3, 26, 8, 43, 7, 371653)</div></td></tr><tr><td style="font-weight:bold;vertical-align:top;">uuid</td><td style="vertical-align:top;">:</td><td><div>itproject/127.0.0.1.2014-03-26.14-13-07.e2494141-91e7-45f1-8960-ef286833a5c0</div></td></tr><tr><td style="font-weight:bold;vertical-align:top;">wsgi</td><td style="vertical-align:top;">:</td><td><div>&lt;gluon.main.LazyWSGI object at 0x7ffd0425b2d0&gt;</div></td></tr></table></div>'
tRp70
sS'frames'
p71
(lp72
(dp73
S'file'
p74
S'/home/hitesh96db/Documents/web2py/gluon/restricted.py'
p75
sS'dump'
p76
(dp77
S'environment'
p78
S"{'A': <class 'gluon.html.A'>, 'ANY_OF': <class 'gluon.validators.ANY_OF'>, 'B': <class 'gluon.html.B'>, 'BEAUTIFY': <class 'gluon.html.BEAUTIFY'>, 'BODY': <class 'gluon.html.BODY'>, 'BR': <class 'gluon.html.BR'>, 'BUTTON': <class 'gluon.html.BUTTON'>, 'CAT': <class 'gluon.html.CAT'>, 'CENTER': <class 'gluon.html.CENTER'>, 'CLEANUP': <class 'gluon.validators.CLEANUP'>, ...}"
p79
sS'ccode'
p80
S'<code object <module> at 0x7ffd041dc230, file "/...lications/itproject/controllers/main.py", line 1>'
p81
ssS'lnum'
p82
I220
sS'lines'
p83
(dp84
I224
S'        # do not encapsulate (obfuscate) the original RestrictedError'
p85
sI215
S'    try:'
p86
sI216
S'        if isinstance(code, types.CodeType):'
p87
sI217
S'            ccode = code'
p88
sI218
S'        else:'
p89
sI219
S'            ccode = compile2(code, layer)'
p90
sI220
S'        exec ccode in environment'
p91
sI221
S'    except HTTP:'
p92
sI222
S'        raise'
p93
sI223
S'    except RestrictedError:'
p94
ssS'call'
p95
S'(code=\'tempname = "Unknown guy"\\ntempflag = 0\\n\\ndef login...\\n\\nresponse._vars=response._caller(loginvalidate)\\n\', environment={\'A\': <class \'gluon.html.A\'>, \'ANY_OF\': <class \'gluon.validators.ANY_OF\'>, \'B\': <class \'gluon.html.B\'>, \'BEAUTIFY\': <class \'gluon.html.BEAUTIFY\'>, \'BODY\': <class \'gluon.html.BODY\'>, \'BR\': <class \'gluon.html.BR\'>, \'BUTTON\': <class \'gluon.html.BUTTON\'>, \'CAT\': <class \'gluon.html.CAT\'>, \'CENTER\': <class \'gluon.html.CENTER\'>, \'CLEANUP\': <class \'gluon.validators.CLEANUP\'>, ...}, layer=\'/home/hitesh96db/Documents/web2py/applications/itproject/controllers/main.py\')'
p96
sS'func'
p97
S'restricted'
p98
sa(dp99
g74
S'/home/hitesh96db/Documents/web2py/applications/itproject/controllers/main.py'
p100
sg76
(dp101
sg82
I90
sg83
(dp102
I79
S'\t\treturn dict(log=request.vars["logout"])'
p103
sI80
S'\treturn dict(log=0)'
p104
sI81
S''
sI82
S'def passthru():'
p105
sI83
S'\ttempname = request.vars["name"]'
p106
sI84
S'\ttempflag = 1'
p107
sI85
S'\treturn tempname'
p108
sI86
S''
sI87
S'def mails():'
p109
sI88
S'\treturn dict(name=tempname)'
p110
ssg95
S'()'
p111
sg97
S'<module>'
p112
sa(dp113
g74
S'/home/hitesh96db/Documents/web2py/gluon/globals.py'
p114
sg76
(dp115
S'self'
p116
S'undefined'
p117
sS'f'
S'<function loginvalidate>'
p118
ssg82
I385
sg83
(dp119
I384
S'        self._vars = None'
p120
sI385
S'        self._caller = lambda f: f()'
p121
sI386
S'        self._view_environment = None'
p122
sI387
S'        self._custom_commit = None'
p123
sI388
S'        self._custom_rollback = None'
p124
sI389
S''
sI380
S'        self.menu = []             # used by the default view layout'
p125
sI381
S'        self.files = []            # used by web2py_ajax.html'
p126
sI382
S'        self.generic_patterns = []  # patterns to allow generic views'
p127
sI383
S"        self.delimiters = ('{{', '}}')"
p128
ssg95
S'(f=<function loginvalidate>)'
p129
sg97
S'<lambda>'
p130
sa(dp131
g74
S'/home/hitesh96db/Documents/web2py/applications/itproject/controllers/main.py'
p132
sg76
(dp133
S'br.open'
p134
S'<bound method Browser.open of <mechanize._mechanize.Browser instance>>'
p135
sS'br'
p136
S'<mechanize._mechanize.Browser instance>'
p137
ssg82
I18
sg83
(dp138
I13
S'\tbr.set_handle_equiv(False)'
p139
sI14
S'\tbr.set_handle_robots(False)'
p140
sI15
S'\tbr.set_handle_refresh(False)'
p141
sI16
S"\tbr.addheaders = [ ('User-Agent','Firefox') ]"
p142
sI17
S''
sI18
S'\tbr.open("https://isas.iiit.ac.in/index.php")'
p143
sI19
S'\tresponse1 = br.response()'
p144
sI20
S'\t#print response1.geturl()'
p145
sI21
S'\t#print response1.info()'
p146
sI22
S''
ssg95
S'()'
p147
sg97
S'loginvalidate'
p148
sa(dp149
g74
S'/usr/lib/python2.7/dist-packages/mechanize/_mechanize.py'
p150
sg76
(dp151
S'url'
p152
S"'https://isas.iiit.ac.in/index.php'"
p153
sS'data'
p154
S'None'
p155
sS'self'
p156
S'<mechanize._mechanize.Browser instance>'
p157
sS'self._mech_open'
p158
S'<bound method Browser._mech_open of <mechanize._mechanize.Browser instance>>'
p159
sS'timeout'
p160
S'<object object>'
p161
ssg82
I203
sg83
(dp162
I198
S'        """'
p163
sI199
S'        return self._mech_open(url, data, visit=False, timeout=timeout)'
p164
sI200
S''
sI201
S'    def open(self, url, data=None,'
p165
sI202
S'             timeout=_sockettimeout._GLOBAL_DEFAULT_TIMEOUT):'
p166
sI203
S'        return self._mech_open(url, data, timeout=timeout)'
p167
sI204
S''
sI205
S'    def _mech_open(self, url, data=None, update_history=True, visit=None,'
p168
sI206
S'                   timeout=_sockettimeout._GLOBAL_DEFAULT_TIMEOUT):'
p169
sI207
S'        try:'
p170
ssg95
S"(self=<mechanize._mechanize.Browser instance>, url='https://isas.iiit.ac.in/index.php', data=None, timeout=<object object>)"
p171
sg97
S'open'
p172
sa(dp173
g74
S'/usr/lib/python2.7/dist-packages/mechanize/_mechanize.py'
p174
sg76
(dp175
S'self'
p176
S'<mechanize._mechanize.Browser instance>'
p177
sS'request'
p178
S'<mechanize._request.Request instance>'
p179
sS'UserAgentBase.open'
p180
S'<unbound method UserAgentBase.open>'
p181
sS'global UserAgentBase'
p182
S'<class mechanize._useragent.UserAgentBase>'
p183
sS'data'
p184
S'None'
p185
sS'response'
p186
g117
ssg82
I230
sg83
(dp187
I225
S'        if visit:'
p188
sI226
S'            self._visit_request(request, update_history)'
p189
sI227
S''
sI228
S'        success = True'
p190
sI229
S'        try:'
p191
sI230
S'            response = UserAgentBase.open(self, request, data)'
p192
sI231
S'        except urllib2.HTTPError, error:'
p193
sI232
S'            success = False'
p194
sI233
S'            if error.fp is None:  # not a response'
p195
sI234
S'                raise'
p196
ssg95
S"(self=<mechanize._mechanize.Browser instance>, url='https://isas.iiit.ac.in/index.php', data=None, update_history=True, visit=True, timeout=<object object>)"
p197
sg97
S'_mech_open'
p198
sa(dp199
g74
S'/usr/lib/python2.7/dist-packages/mechanize/_opener.py'
p200
sg76
(dp201
S'urlopen'
p202
S'<unbound method OpenerDirector._open>'
p203
sS'self'
p204
S'<mechanize._mechanize.Browser instance>'
p205
sS'req'
p206
S'<mechanize._request.Request instance>'
p207
sS'data'
p208
S'None'
p209
sS'response'
p210
g117
ssg82
I193
sg83
(dp211
I192
S'        urlopen = _urllib2_fork.OpenerDirector._open'
p212
sI193
S'        response = urlopen(self, req, data)'
p213
sI194
S''
sI195
S'        # post-process response'
p214
sI196
S'        response_processors = set(self.process_response.get(req_scheme, []))'
p215
sI197
S'        response_processors.update(self._any_response)'
p216
sI188
S'                    req = meth(req)'
p217
sI189
S''
sI190
S'        # In Python >= 2.4, .open() supports processors already, so we must'
p218
sI191
S'        # call ._open() instead.'
p219
ssg95
S'(self=<mechanize._mechanize.Browser instance>, fullurl=<mechanize._request.Request instance>, data=None, timeout=<object object>)'
p220
sg97
g172
sa(dp221
g74
S'/usr/lib/python2.7/dist-packages/mechanize/_urllib2_fork.py'
p222
sg76
(dp223
S'req'
p224
S'<mechanize._request.Request instance>'
p225
ssg82
I344
sg83
(dp226
I339
S'        if result:'
p227
sI340
S'            return result'
p228
sI341
S''
sI342
S'        protocol = req.get_type()'
p229
sI343
S'        result = self._call_chain(self.handle_open, protocol, protocol +'
p230
sI344
S"                                  '_open', req)"
p231
sI345
S'        if result:'
p232
sI346
S'            return result'
p233
sI347
S''
sI348
S"        return self._call_chain(self.handle_open, 'unknown',"
p234
ssg95
S'(self=<mechanize._mechanize.Browser instance>, req=<mechanize._request.Request instance>, data=None)'
p235
sg97
S'_open'
p236
sa(dp237
g74
S'/usr/lib/python2.7/dist-packages/mechanize/_urllib2_fork.py'
p238
sg76
(dp239
S'args'
p240
S'(<mechanize._request.Request instance>,)'
p241
sS'result'
p242
g117
sS'func'
p243
S'<bound method HTTPSHandler.https_open of <mechanize._urllib2_fork.HTTPSHandler instance>>'
p244
ssg82
I332
sg83
(dp245
I327
S'        # could.  Otherwise, they return the response.'
p246
sI328
S'        handlers = chain.get(kind, ())'
p247
sI329
S'        for handler in handlers:'
p248
sI330
S'            func = getattr(handler, meth_name)'
p249
sI331
S''
sI332
S'            result = func(*args)'
p250
sI333
S'            if result is not None:'
p251
sI334
S'                return result'
p252
sI335
S''
sI336
S'    def _open(self, req, data=None):'
p253
ssg95
S"(self=<mechanize._mechanize.Browser instance>, chain={'file': [<mechanize._urllib2_fork.FileHandler instance>], 'ftp': [<mechanize._urllib2_fork.ProxyHandler instance>, <mechanize._urllib2_fork.FTPHandler instance>], 'http': [<mechanize._urllib2_fork.ProxyHandler instance>, <mechanize._urllib2_fork.HTTPHandler instance>], 'https': [<mechanize._urllib2_fork.HTTPSHandler instance>], 'unknown': [<mechanize._urllib2_fork.UnknownHandler instance>]}, kind='https', meth_name='https_open', *args=(<mechanize._request.Request instance>,))"
p254
sg97
S'_call_chain'
p255
sa(dp256
g74
S'/usr/lib/python2.7/dist-packages/mechanize/_urllib2_fork.py'
p257
sg76
(dp258
S'conn_factory'
p259
S'<mechanize._urllib2_fork.HTTPSConnectionFactory instance>'
p260
sS'self'
p261
S'<mechanize._urllib2_fork.HTTPSHandler instance>'
p262
sS'req'
p263
S'<mechanize._request.Request instance>'
p264
sS'self.do_open'
p265
S'<bound method HTTPSHandler.do_open of <mechanize._urllib2_fork.HTTPSHandler instance>>'
p266
ssg82
I1170
sg83
(dp267
I1165
S'                key_file, cert_file = self.client_cert_manager.find_key_cert('
p268
sI1166
S'                    req.get_full_url())'
p269
sI1167
S'                conn_factory = HTTPSConnectionFactory(key_file, cert_file)'
p270
sI1168
S'            else:'
p271
sI1169
S'                conn_factory = httplib.HTTPSConnection'
p272
sI1170
S'            return self.do_open(conn_factory, req)'
p273
sI1171
S''
sI1172
S'        https_request = AbstractHTTPHandler.do_request_'
p274
sI1173
S''
sI1174
S'class HTTPCookieProcessor(BaseHandler):'
p275
ssg95
S'(self=<mechanize._urllib2_fork.HTTPSHandler instance>, req=<mechanize._request.Request instance>)'
p276
sg97
S'https_open'
p277
sa(dp278
g74
S'/usr/lib/python2.7/dist-packages/mechanize/_urllib2_fork.py'
p279
sg76
(dp280
S'err'
p281
S"gaierror(-2, 'Name or service not known')"
p282
sS'global URLError'
p283
S"<class 'urllib2.URLError'>"
p284
ssg82
I1118
sg83
(dp285
I1120
S'        # Pick apart the HTTPResponse object to get the addinfourl'
p286
sI1121
S'        # object initialized properly.'
p287
sI1122
S''
sI1113
S''
sI1114
S'        try:'
p288
sI1115
S'            h.request(req.get_method(), req.get_selector(), req.data, headers)'
p289
sI1116
S'            r = h.getresponse()'
p290
sI1117
S'        except socket.error, err: # XXX what error?'
p291
sI1118
S'            raise URLError(err)'
p292
sI1119
S''
ssg95
S'(self=<mechanize._urllib2_fork.HTTPSHandler instance>, http_class=<mechanize._urllib2_fork.HTTPSConnectionFactory instance>, req=<mechanize._request.Request instance>)'
p293
sg97
S'do_open'
p294
sasS'pyver'
p295
S'Python 2.7.3: /usr/bin/python (prefix: /usr)'
p296
sS'session'
p297
g69
(S's\x1a\x00\x00\x00<div><table></table></div>'
tRp298
sS'etype'
p299
S"<class 'urllib2.URLError'>"
p300
sS'date'
p301
S'Wed Mar 26 14:13:07 2014'
p302
sS'response'
p303
g69
(S's\x9e\x15\x00\x00<div><table><tr><td style="font-weight:bold;vertical-align:top;">body</td><td style="vertical-align:top;">:</td><td><div>&lt;cStringIO.StringO object at 0x7ffd0c038730&gt;</div></td></tr><tr><td style="font-weight:bold;vertical-align:top;">cookies</td><td style="vertical-align:top;">:</td><td><div><table><tr><td style="font-weight:bold;vertical-align:top;">session_id_itproject</td><td style="vertical-align:top;">:</td><td><div>127.0.0.1-4efcf342-7582-45ec-b5d5-f67ab86b67f0<table><tr><td style="font-weight:bold;vertical-align:top;">comment</td><td style="vertical-align:top;">:</td><td><div></div></td></tr><tr><td style="font-weight:bold;vertical-align:top;">domain</td><td style="vertical-align:top;">:</td><td><div></div></td></tr><tr><td style="font-weight:bold;vertical-align:top;">expires</td><td style="vertical-align:top;">:</td><td><div></div></td></tr><tr><td style="font-weight:bold;vertical-align:top;">httponly</td><td style="vertical-align:top;">:</td><td><div></div></td></tr><tr><td style="font-weight:bold;vertical-align:top;">max-age</td><td style="vertical-align:top;">:</td><td><div></div></td></tr><tr><td style="font-weight:bold;vertical-align:top;">path</td><td style="vertical-align:top;">:</td><td><div>/</div></td></tr><tr><td style="font-weight:bold;vertical-align:top;">secure</td><td style="vertical-align:top;">:</td><td><div></div></td></tr><tr><td style="font-weight:bold;vertical-align:top;">version</td><td style="vertical-align:top;">:</td><td><div></div></td></tr></table></div></td></tr></table></div></td></tr><tr><td style="font-weight:bold;vertical-align:top;">delimiters</td><td style="vertical-align:top;">:</td><td><div><table><tr><td><div>{{</div></td></tr><tr><td><div>}}</div></td></tr></table></div></td></tr><tr><td style="font-weight:bold;vertical-align:top;">files</td><td style="vertical-align:top;">:</td><td><div><table></table></div></td></tr><tr><td style="font-weight:bold;vertical-align:top;">flash</td><td style="vertical-align:top;">:</td><td><div></div></td></tr><tr><td style="font-weight:bold;vertical-align:top;">generic_patterns</td><td style="vertical-align:top;">:</td><td><div><table></table></div></td></tr><tr><td style="font-weight:bold;vertical-align:top;">headers</td><td style="vertical-align:top;">:</td><td><div><table><tr><td style="font-weight:bold;vertical-align:top;">X-Powered-By</td><td style="vertical-align:top;">:</td><td><div>web2py</div></td></tr></table></div></td></tr><tr><td style="font-weight:bold;vertical-align:top;">menu</td><td style="vertical-align:top;">:</td><td><div><table></table></div></td></tr><tr><td style="font-weight:bold;vertical-align:top;">meta</td><td style="vertical-align:top;">:</td><td><div><table></table></div></td></tr><tr><td style="font-weight:bold;vertical-align:top;">models_to_run</td><td style="vertical-align:top;">:</td><td><div><table><tr><td><div>^\\w+\\.py$</div></td></tr><tr><td><div>^main/\\w+\\.py$</div></td></tr><tr><td><div>^main/loginvalidate/\\w+\\.py$</div></td></tr></table></div></td></tr><tr><td style="font-weight:bold;vertical-align:top;">postprocessing</td><td style="vertical-align:top;">:</td><td><div><table></table></div></td></tr><tr><td style="font-weight:bold;vertical-align:top;">session_client</td><td style="vertical-align:top;">:</td><td><div>127.0.0.1</div></td></tr><tr><td style="font-weight:bold;vertical-align:top;">session_cookie_compression_level</td><td style="vertical-align:top;">:</td><td><div>None</div></td></tr><tr><td style="font-weight:bold;vertical-align:top;">session_cookie_expires</td><td style="vertical-align:top;">:</td><td><div>None</div></td></tr><tr><td style="font-weight:bold;vertical-align:top;">session_cookie_key</td><td style="vertical-align:top;">:</td><td><div>None</div></td></tr><tr><td style="font-weight:bold;vertical-align:top;">session_data_name</td><td style="vertical-align:top;">:</td><td><div>session_data_itproject</div></td></tr><tr><td style="font-weight:bold;vertical-align:top;">session_file</td><td style="vertical-align:top;">:</td><td><div>None</div></td></tr><tr><td style="font-weight:bold;vertical-align:top;">session_filename</td><td style="vertical-align:top;">:</td><td><div>/home/hitesh96db/Documents/web2py/applications/itproject/sessions/127.0.0.1-4efcf342-7582-45ec-b5d5-f67ab86b67f0</div></td></tr><tr><td style="font-weight:bold;vertical-align:top;">session_hash</td><td style="vertical-align:top;">:</td><td><div>106f4c22ca06cc343e42b73a0d8492f6</div></td></tr><tr><td style="font-weight:bold;vertical-align:top;">session_id</td><td style="vertical-align:top;">:</td><td><div>127.0.0.1-4efcf342-7582-45ec-b5d5-f67ab86b67f0</div></td></tr><tr><td style="font-weight:bold;vertical-align:top;">session_id_name</td><td style="vertical-align:top;">:</td><td><div>session_id_itproject</div></td></tr><tr><td style="font-weight:bold;vertical-align:top;">session_masterapp</td><td style="vertical-align:top;">:</td><td><div>itproject</div></td></tr><tr><td style="font-weight:bold;vertical-align:top;">session_new</td><td style="vertical-align:top;">:</td><td><div>True</div></td></tr><tr><td style="font-weight:bold;vertical-align:top;">session_storage_type</td><td style="vertical-align:top;">:</td><td><div>file</div></td></tr><tr><td style="font-weight:bold;vertical-align:top;">status</td><td style="vertical-align:top;">:</td><td><div>200</div></td></tr><tr><td style="font-weight:bold;vertical-align:top;">view</td><td style="vertical-align:top;">:</td><td><div>main/loginvalidate.html</div></td></tr></table></div>'
tRp304
sS'locals'
p305
(dp306
S'err'
p307
S"gaierror(-2, 'Name or service not known')"
p308
sS'host_port'
p309
S"'isas.iiit.ac.in'"
p310
sS'self'
p311
S'<mechanize._urllib2_fork.HTTPSHandler instance>'
p312
sS'req'
p313
S'<mechanize._request.Request instance>'
p314
sS'headers'
p315
S"{'Connection': 'close', 'Host': 'isas.iiit.ac.in', 'User-Agent': 'Firefox'}"
p316
sS'http_class'
p317
S'<mechanize._urllib2_fork.HTTPSConnectionFactory instance>'
p318
sS'h'
S'<httplib.HTTPSConnection instance>'
p319
sssS'traceback'
p320
S'Traceback (most recent call last):\n  File "/home/hitesh96db/Documents/web2py/gluon/restricted.py", line 220, in restricted\n    exec ccode in environment\n  File "/home/hitesh96db/Documents/web2py/applications/itproject/controllers/main.py", line 90, in <module>\n  File "/home/hitesh96db/Documents/web2py/gluon/globals.py", line 385, in <lambda>\n    self._caller = lambda f: f()\n  File "/home/hitesh96db/Documents/web2py/applications/itproject/controllers/main.py", line 18, in loginvalidate\n    br.open("https://isas.iiit.ac.in/index.php")\n  File "/usr/lib/python2.7/dist-packages/mechanize/_mechanize.py", line 203, in open\n    return self._mech_open(url, data, timeout=timeout)\n  File "/usr/lib/python2.7/dist-packages/mechanize/_mechanize.py", line 230, in _mech_open\n    response = UserAgentBase.open(self, request, data)\n  File "/usr/lib/python2.7/dist-packages/mechanize/_opener.py", line 193, in open\n    response = urlopen(self, req, data)\n  File "/usr/lib/python2.7/dist-packages/mechanize/_urllib2_fork.py", line 344, in _open\n    \'_open\', req)\n  File "/usr/lib/python2.7/dist-packages/mechanize/_urllib2_fork.py", line 332, in _call_chain\n    result = func(*args)\n  File "/usr/lib/python2.7/dist-packages/mechanize/_urllib2_fork.py", line 1170, in https_open\n    return self.do_open(conn_factory, req)\n  File "/usr/lib/python2.7/dist-packages/mechanize/_urllib2_fork.py", line 1118, in do_open\n    raise URLError(err)\nURLError: <urlopen error [Errno -2] Name or service not known>\n'
p321
s.