(dp1
S'output'
p2
S"<class 'httplib.BadStatusLine'> ''"
p3
sS'layer'
p4
S'/home/hitesh96db/Documents/web2py/applications/itproject/controllers/main.py'
p5
sS'code'
p6
S'def loginvalidate():\n#\treturn "email %s password %s" % ( request.vars["email"],request.vars["password"] )\n\timport mechanize\n\timport os\n\timport re\n\timport json\n\n\tbr = mechanize.Browser()\n\tbr.set_proxies({"ftp":"proxy.iiit.ac.in:8080","http":"proxy.iiit.ac.in:8080"})\n\tbr.set_handle_equiv(False)\n\tbr.set_handle_robots(False)\n\tbr.set_handle_refresh(False)\n\tbr.addheaders = [ (\'User-Agent\',\'Firefox\') ]\n\n\tbr.open("https://isas.iiit.ac.in/index.php")\n\tresponse1 = br.response()\n\t#print response1.geturl()\n\t#print response1.info()\n\n\tbr.form = list(br.forms())[0]\n\t#for control in br.form.controls:\n\t#       print control.name\n\n\n\tbr["StUdent"] = request.vars["email"]\n\tbr["password"] = request.vars["password"]\n\t#br["rno"]="2013"\n\t#br["grade"]="A"\n\n\tresponse1 = br.submit()\n\tf = open(\'isas.html\', \'w\')\n\tk = response1.read()\n\tf.write(k)\n\tf.close()\n\n\tf = open("isas.html","r")\n\tl = f.readlines()\n\tf = open("isas.html","r")\n\tdoc = f.read()\n\n\tstudentinfo = {}\n\n\tif "Incorrect" in doc:\n\t        studentinfo["name"] = "unknown"\n\t\treturn json.dumps(studentinfo)\n\tfor i in l:\n\t        if "Name" in i:\n \t               line1 = i\n\t        if "Batch" in i:\n\t                line2 = i\n\t                break\n\n\tline1 = line1.strip()\n\tline2 = line2.strip()\n\n\tpass2 = re.findall("<b>.{1,30}<\\/b\\>",line1)\n\tname = pass2[0][3:-4].lower().title()\n\trollno = pass2[1][3:-5]\n\n\tstudentinfo = {}\n\n\tstudentinfo["name"]=name;\n\tstudentinfo["rollno"]=rollno;\n\t\n\tpass2 = re.findall("<b>.{1,30}<\\/b\\>",line2)\n\tbatch = pass2[0][3:-4]\n\tno = pass2[1][3:-4]\n\n\tstudentinfo["batch"]=batch;\n\n\treturn json.dumps(studentinfo)\n\n\ndef loginmy():\n\treturn dict()\ndef mails():\n\treturn dict(name=request.vars["name"])\n\nresponse._vars=response._caller(loginvalidate)\n'
p7
sS'snapshot'
p8
(dp9
S'exception'
p10
(dp11
S'__module__'
p12
S"'httplib'"
p13
sS'__getslice__'
p14
S"<method-wrapper '__getslice__' of BadStatusLine object>"
p15
sS'__str__'
p16
S"<method-wrapper '__str__' of BadStatusLine object>"
p17
sS'__reduce__'
p18
S'<built-in method __reduce__ of BadStatusLine object>'
p19
sS'__dict__'
p20
S'{\'line\': "\'\'"}'
p21
sS'__sizeof__'
p22
S'<built-in method __sizeof__ of BadStatusLine object>'
p23
sS'__weakref__'
p24
S'None'
p25
sS'__init__'
p26
S'<bound method BadStatusLine.__init__ of BadStatusLine("\'\'",)>'
p27
sS'__setattr__'
p28
S"<method-wrapper '__setattr__' of BadStatusLine object>"
p29
sS'__reduce_ex__'
p30
S'<built-in method __reduce_ex__ of BadStatusLine object>'
p31
sS'__new__'
p32
S'<built-in method __new__ of type object>'
p33
sS'__format__'
p34
S'<built-in method __format__ of BadStatusLine object>'
p35
sS'__class__'
p36
S"<class 'httplib.BadStatusLine'>"
p37
sS'__doc__'
p38
S'None'
p39
sS'__getitem__'
p40
S"<method-wrapper '__getitem__' of BadStatusLine object>"
p41
sS'__setstate__'
p42
S'<built-in method __setstate__ of BadStatusLine object>'
p43
sS'__getattribute__'
p44
S"<method-wrapper '__getattribute__' of BadStatusLine object>"
p45
sS'args'
p46
S'("\'\'",)'
p47
sS'__subclasshook__'
p48
S'<built-in method __subclasshook__ of type object>'
p49
sS'line'
p50
S'"\'\'"'
p51
sS'__unicode__'
p52
S'<built-in method __unicode__ of BadStatusLine object>'
p53
sS'__delattr__'
p54
S"<method-wrapper '__delattr__' of BadStatusLine object>"
p55
sS'__repr__'
p56
S"<method-wrapper '__repr__' of BadStatusLine object>"
p57
sS'__hash__'
p58
S"<method-wrapper '__hash__' of BadStatusLine object>"
p59
ssS'evalue'
p60
S"''"
p61
sS'request'
p62
cgluon.html
XML_unpickle
p63
(S's\xd2U\x00\x00<div><table><tr><td style="font-weight:bold;vertical-align:top;">ajax</td><td style="vertical-align:top;">:</td><td><div>False</div></td></tr><tr><td style="font-weight:bold;vertical-align:top;">application</td><td style="vertical-align:top;">:</td><td><div>itproject</div></td></tr><tr><td style="font-weight:bold;vertical-align:top;">args</td><td style="vertical-align:top;">:</td><td><div><table></table></div></td></tr><tr><td style="font-weight:bold;vertical-align:top;">cid</td><td style="vertical-align:top;">:</td><td><div>None</div></td></tr><tr><td style="font-weight:bold;vertical-align:top;">client</td><td style="vertical-align:top;">:</td><td><div>127.0.0.1</div></td></tr><tr><td style="font-weight:bold;vertical-align:top;">controller</td><td style="vertical-align:top;">:</td><td><div>main</div></td></tr><tr><td style="font-weight:bold;vertical-align:top;">cookies</td><td style="vertical-align:top;">:</td><td><div><table><tr><td style="font-weight:bold;vertical-align:top;">session_id_itproject</td><td style="vertical-align:top;">:</td><td><div>127.0.0.1-54fa197d-4911-485e-9907-6cdf397ca306<table><tr><td style="font-weight:bold;vertical-align:top;">comment</td><td style="vertical-align:top;">:</td><td><div></div></td></tr><tr><td style="font-weight:bold;vertical-align:top;">domain</td><td style="vertical-align:top;">:</td><td><div></div></td></tr><tr><td style="font-weight:bold;vertical-align:top;">expires</td><td style="vertical-align:top;">:</td><td><div></div></td></tr><tr><td style="font-weight:bold;vertical-align:top;">httponly</td><td style="vertical-align:top;">:</td><td><div></div></td></tr><tr><td style="font-weight:bold;vertical-align:top;">max-age</td><td style="vertical-align:top;">:</td><td><div></div></td></tr><tr><td style="font-weight:bold;vertical-align:top;">path</td><td style="vertical-align:top;">:</td><td><div></div></td></tr><tr><td style="font-weight:bold;vertical-align:top;">secure</td><td style="vertical-align:top;">:</td><td><div></div></td></tr><tr><td style="font-weight:bold;vertical-align:top;">version</td><td style="vertical-align:top;">:</td><td><div></div></td></tr></table></div></td></tr></table></div></td></tr><tr><td style="font-weight:bold;vertical-align:top;">env</td><td style="vertical-align:top;">:</td><td><div><table><tr><td style="font-weight:bold;vertical-align:top;">CONTENT_LENGTH</td><td style="vertical-align:top;">:</td><td><div>37</div></td></tr><tr><td style="font-weight:bold;vertical-align:top;">CONTENT_TYPE</td><td style="vertical-align:top;">:</td><td><div>application/x-www-form-urlencoded; charset=UTF-8</div></td></tr><tr><td style="font-weight:bold;vertical-align:top;">HTTP_ACCEPT</td><td style="vertical-align:top;">:</td><td><div>text/html,application/xhtml+xml,application/xml;q=0.9,*/*;q=0.8</div></td></tr><tr><td style="font-weight:bold;vertical-align:top;">HTTP_ACCEPT_ENCODING</td><td style="vertical-align:top;">:</td><td><div>gzip, deflate</div></td></tr><tr><td style="font-weight:bold;vertical-align:top;">HTTP_ACCEPT_LANGUAGE</td><td style="vertical-align:top;">:</td><td><div>en-US,en;q=0.5</div></td></tr><tr><td style="font-weight:bold;vertical-align:top;">HTTP_CACHE_CONTROL</td><td style="vertical-align:top;">:</td><td><div>no-cache</div></td></tr><tr><td style="font-weight:bold;vertical-align:top;">HTTP_CONNECTION</td><td style="vertical-align:top;">:</td><td><div>keep-alive</div></td></tr><tr><td style="font-weight:bold;vertical-align:top;">HTTP_CONTENT_LENGTH</td><td style="vertical-align:top;">:</td><td><div>37</div></td></tr><tr><td style="font-weight:bold;vertical-align:top;">HTTP_CONTENT_TYPE</td><td style="vertical-align:top;">:</td><td><div>application/x-www-form-urlencoded; charset=UTF-8</div></td></tr><tr><td style="font-weight:bold;vertical-align:top;">HTTP_COOKIE</td><td style="vertical-align:top;">:</td><td><div>session_id_itproject=127.0.0.1-54fa197d-4911-485e-9907-6cdf397ca306</div></td></tr><tr><td style="font-weight:bold;vertical-align:top;">HTTP_HOST</td><td style="vertical-align:top;">:</td><td><div>127.0.0.1:8010</div></td></tr><tr><td style="font-weight:bold;vertical-align:top;">HTTP_PRAGMA</td><td style="vertical-align:top;">:</td><td><div>no-cache</div></td></tr><tr><td style="font-weight:bold;vertical-align:top;">HTTP_REFERER</td><td style="vertical-align:top;">:</td><td><div>http://127.0.0.1:8010/itproject/main/loginmy</div></td></tr><tr><td style="font-weight:bold;vertical-align:top;">HTTP_USER_AGENT</td><td style="vertical-align:top;">:</td><td><div>Mozilla/5.0 (X11; Ubuntu; Linux x86_64; rv:27.0) Gecko/20100101 Firefox/27.0</div></td></tr><tr><td style="font-weight:bold;vertical-align:top;">PATH_INFO</td><td style="vertical-align:top;">:</td><td><div>/itproject/main/loginvalidate</div></td></tr><tr><td style="font-weight:bold;vertical-align:top;">QUERY_STRING</td><td style="vertical-align:top;">:</td><td><div></div></td></tr><tr><td style="font-weight:bold;vertical-align:top;">REMOTE_ADDR</td><td style="vertical-align:top;">:</td><td><div>127.0.0.1</div></td></tr><tr><td style="font-weight:bold;vertical-align:top;">REMOTE_PORT</td><td style="vertical-align:top;">:</td><td><div>52226</div></td></tr><tr><td style="font-weight:bold;vertical-align:top;">REQUEST_METHOD</td><td style="vertical-align:top;">:</td><td><div>POST</div></td></tr><tr><td style="font-weight:bold;vertical-align:top;">SCRIPT_NAME</td><td style="vertical-align:top;">:</td><td><div></div></td></tr><tr><td style="font-weight:bold;vertical-align:top;">SERVER_NAME</td><td style="vertical-align:top;">:</td><td><div>Beast</div></td></tr><tr><td style="font-weight:bold;vertical-align:top;">SERVER_PORT</td><td style="vertical-align:top;">:</td><td><div>8010</div></td></tr><tr><td style="font-weight:bold;vertical-align:top;">SERVER_PROTOCOL</td><td style="vertical-align:top;">:</td><td><div>HTTP/1.1</div></td></tr><tr><td style="font-weight:bold;vertical-align:top;">SERVER_SOFTWARE</td><td style="vertical-align:top;">:</td><td><div>Rocket 1.2.6</div></td></tr><tr><td style="font-weight:bold;vertical-align:top;">app_folders</td><td style="vertical-align:top;">:</td><td><div>set([&#x27;/home/hitesh96db/Documents/web2py/applications/itproject/&#x27;])</div></td></tr><tr><td style="font-weight:bold;vertical-align:top;">applications_parent</td><td style="vertical-align:top;">:</td><td><div>/home/hitesh96db/Documents/web2py</div></td></tr><tr><td style="font-weight:bold;vertical-align:top;">cmd_args</td><td style="vertical-align:top;">:</td><td><div><table></table></div></td></tr><tr><td style="font-weight:bold;vertical-align:top;">cmd_options</td><td style="vertical-align:top;">:</td><td><div>&lt;Values at 0x28a8ab8: {&#x27;verbose&#x27;: False, &#x27;ip&#x27;: &#x27;127.0.0.1&#x27;, &#x27;debuglevel&#x27;: 30, &#x27;with_scheduler&#x27;: False, &#x27;ips&#x27;: [&#x27;127.0.1.1&#x27;], &#x27;shutdown_timeout&#x27;: 5, &#x27;taskbar&#x27;: False, &#x27;with_coverage&#x27;: False, &#x27;port&#x27;: 8000, &#x27;maxthreads&#x27;: None, &#x27;softcron&#x27;: False, &#x27;server_name&#x27;: &#x27;Beast&#x27;, &#x27;bpython&#x27;: False, &#x27;nogui&#x27;: False, &#x27;pid_filename&#x27;: &#x27;httpserver.pid&#x27;, &#x27;extcron&#x27;: False, &#x27;runcron&#x27;: False, &#x27;run_system_tests&#x27;: False, &#x27;test&#x27;: None, &#x27;folder&#x27;: &#x27;/home/hitesh96db/Documents/web2py&#x27;, &#x27;config&#x27;: &#x27;&#x27;, &#x27;minthreads&#x27;: None, &#x27;shell&#x27;: None, &#x27;run&#x27;: &#x27;&#x27;, &#x27;log_filename&#x27;: &#x27;httpserver.log&#x27;, &#x27;profiler_dir&#x27;: None, &#x27;args&#x27;: [&#x27;&#x27;], &#x27;socket_timeout&#x27;: 5, &#x27;ssl_ca_certificate&#x27;: None, &#x27;scheduler&#x27;: None, &#x27;interfaces&#x27;: None, &#x27;ssl_private_key&#x27;: &#x27;&#x27;, &#x27;scheduler_groups&#x27;: None, &#x27;password&#x27;: &#x27;&lt;ask&gt;&#x27;, &#x27;request_queue_size&#x27;: 5, &#x27;ssl_certificate&#x27;: &#x27;&#x27;, &#x27;cronjob&#x27;: False, &#x27;numthreads&#x27;: None, &#x27;quiet&#x27;: False, &#x27;import_models&#x27;: False, &#x27;timeout&#x27;: 10, &#x27;plain&#x27;: False, &#x27;nobanner&#x27;: False}&gt;</div></td></tr><tr><td style="font-weight:bold;vertical-align:top;">content_length</td><td style="vertical-align:top;">:</td><td><div>37</div></td></tr><tr><td style="font-weight:bold;vertical-align:top;">content_type</td><td style="vertical-align:top;">:</td><td><div>application/x-www-form-urlencoded; charset=UTF-8</div></td></tr><tr><td style="font-weight:bold;vertical-align:top;">db_sessions</td><td style="vertical-align:top;">:</td><td><div>set([])</div></td></tr><tr><td style="font-weight:bold;vertical-align:top;">debugging</td><td style="vertical-align:top;">:</td><td><div>False</div></td></tr><tr><td style="font-weight:bold;vertical-align:top;">gluon_parent</td><td style="vertical-align:top;">:</td><td><div>/home/hitesh96db/Documents/web2py</div></td></tr><tr><td style="font-weight:bold;vertical-align:top;">http_accept</td><td style="vertical-align:top;">:</td><td><div>text/html,application/xhtml+xml,application/xml;q=0.9,*/*;q=0.8</div></td></tr><tr><td style="font-weight:bold;vertical-align:top;">http_accept_encoding</td><td style="vertical-align:top;">:</td><td><div>gzip, deflate</div></td></tr><tr><td style="font-weight:bold;vertical-align:top;">http_accept_language</td><td style="vertical-align:top;">:</td><td><div>en-US,en;q=0.5</div></td></tr><tr><td style="font-weight:bold;vertical-align:top;">http_cache_control</td><td style="vertical-align:top;">:</td><td><div>no-cache</div></td></tr><tr><td style="font-weight:bold;vertical-align:top;">http_connection</td><td style="vertical-align:top;">:</td><td><div>keep-alive</div></td></tr><tr><td style="font-weight:bold;vertical-align:top;">http_content_length</td><td style="vertical-align:top;">:</td><td><div>37</div></td></tr><tr><td style="font-weight:bold;vertical-align:top;">http_content_type</td><td style="vertical-align:top;">:</td><td><div>application/x-www-form-urlencoded; charset=UTF-8</div></td></tr><tr><td style="font-weight:bold;vertical-align:top;">http_cookie</td><td style="vertical-align:top;">:</td><td><div>session_id_itproject=127.0.0.1-54fa197d-4911-485e-9907-6cdf397ca306</div></td></tr><tr><td style="font-weight:bold;vertical-align:top;">http_host</td><td style="vertical-align:top;">:</td><td><div>127.0.0.1:8010</div></td></tr><tr><td style="font-weight:bold;vertical-align:top;">http_pragma</td><td style="vertical-align:top;">:</td><td><div>no-cache</div></td></tr><tr><td style="font-weight:bold;vertical-align:top;">http_referer</td><td style="vertical-align:top;">:</td><td><div>http://127.0.0.1:8010/itproject/main/loginmy</div></td></tr><tr><td style="font-weight:bold;vertical-align:top;">http_user_agent</td><td style="vertical-align:top;">:</td><td><div>Mozilla/5.0 (X11; Ubuntu; Linux x86_64; rv:27.0) Gecko/20100101 Firefox/27.0</div></td></tr><tr><td style="font-weight:bold;vertical-align:top;">is_jython</td><td style="vertical-align:top;">:</td><td><div>False</div></td></tr><tr><td style="font-weight:bold;vertical-align:top;">is_pypy</td><td style="vertical-align:top;">:</td><td><div>False</div></td></tr><tr><td style="font-weight:bold;vertical-align:top;">is_source</td><td style="vertical-align:top;">:</td><td><div>True</div></td></tr><tr><td style="font-weight:bold;vertical-align:top;">local_hosts</td><td style="vertical-align:top;">:</td><td><div><table><tr><td><div>Beast</div></td></tr><tr><td><div>::1</div></td></tr><tr><td><div>127.0.1.1</div></td></tr><tr><td><div>::ffff:127.0.0.1</div></td></tr><tr><td><div>127.0.0.1</div></td></tr></table></div></td></tr><tr><td style="font-weight:bold;vertical-align:top;">path_info</td><td style="vertical-align:top;">:</td><td><div>/itproject/main/loginvalidate</div></td></tr><tr><td style="font-weight:bold;vertical-align:top;">query_string</td><td style="vertical-align:top;">:</td><td><div></div></td></tr><tr><td style="font-weight:bold;vertical-align:top;">remote_addr</td><td style="vertical-align:top;">:</td><td><div>127.0.0.1</div></td></tr><tr><td style="font-weight:bold;vertical-align:top;">remote_port</td><td style="vertical-align:top;">:</td><td><div>52226</div></td></tr><tr><td style="font-weight:bold;vertical-align:top;">request_method</td><td style="vertical-align:top;">:</td><td><div>POST</div></td></tr><tr><td style="font-weight:bold;vertical-align:top;">request_uri</td><td style="vertical-align:top;">:</td><td><div>/itproject/main/loginvalidate</div></td></tr><tr><td style="font-weight:bold;vertical-align:top;">script_name</td><td style="vertical-align:top;">:</td><td><div></div></td></tr><tr><td style="font-weight:bold;vertical-align:top;">server_name</td><td style="vertical-align:top;">:</td><td><div>Beast</div></td></tr><tr><td style="font-weight:bold;vertical-align:top;">server_port</td><td style="vertical-align:top;">:</td><td><div>8010</div></td></tr><tr><td style="font-weight:bold;vertical-align:top;">server_protocol</td><td style="vertical-align:top;">:</td><td><div>HTTP/1.1</div></td></tr><tr><td style="font-weight:bold;vertical-align:top;">server_software</td><td style="vertical-align:top;">:</td><td><div>Rocket 1.2.6</div></td></tr><tr><td style="font-weight:bold;vertical-align:top;">web2py_path</td><td style="vertical-align:top;">:</td><td><div>/home/hitesh96db/Documents/web2py</div></td></tr><tr><td style="font-weight:bold;vertical-align:top;">web2py_version</td><td style="vertical-align:top;">:</td><td><div>2.9.5-stable+timestamp.2014.03.16.02.35.39</div></td></tr><tr><td style="font-weight:bold;vertical-align:top;">wsgi.errors</td><td style="vertical-align:top;">:</td><td><div>&lt;open file &#x27;&lt;stderr&gt;&#x27;, mode &#x27;w&#x27; at 0x7f4c37c67270&gt;</div></td></tr><tr><td style="font-weight:bold;vertical-align:top;">wsgi.file_wrapper</td><td style="vertical-align:top;">:</td><td><div>&lt;class wsgiref.util.FileWrapper at 0x2816328&gt;</div></td></tr><tr><td style="font-weight:bold;vertical-align:top;">wsgi.input</td><td style="vertical-align:top;">:</td><td><div>&lt;socket._fileobject object at 0x7f4c1404f550&gt;</div></td></tr><tr><td style="font-weight:bold;vertical-align:top;">wsgi.multiprocess</td><td style="vertical-align:top;">:</td><td><div>False</div></td></tr><tr><td style="font-weight:bold;vertical-align:top;">wsgi.multithread</td><td style="vertical-align:top;">:</td><td><div>True</div></td></tr><tr><td style="font-weight:bold;vertical-align:top;">wsgi.run_once</td><td style="vertical-align:top;">:</td><td><div>False</div></td></tr><tr><td style="font-weight:bold;vertical-align:top;">wsgi.url_scheme</td><td style="vertical-align:top;">:</td><td><div>http</div></td></tr><tr><td style="font-weight:bold;vertical-align:top;">wsgi.version</td><td style="vertical-align:top;">:</td><td><div><table><tr><td><div>1</div></td></tr><tr><td><div>0</div></td></tr></table></div></td></tr><tr><td style="font-weight:bold;vertical-align:top;">wsgi_errors</td><td style="vertical-align:top;">:</td><td><div>&lt;open file &#x27;&lt;stderr&gt;&#x27;, mode &#x27;w&#x27; at 0x7f4c37c67270&gt;</div></td></tr><tr><td style="font-weight:bold;vertical-align:top;">wsgi_file_wrapper</td><td style="vertical-align:top;">:</td><td><div>&lt;class wsgiref.util.FileWrapper at 0x2816328&gt;</div></td></tr><tr><td style="font-weight:bold;vertical-align:top;">wsgi_input</td><td style="vertical-align:top;">:</td><td><div>&lt;socket._fileobject object at 0x7f4c1404f550&gt;</div></td></tr><tr><td style="font-weight:bold;vertical-align:top;">wsgi_multiprocess</td><td style="vertical-align:top;">:</td><td><div>False</div></td></tr><tr><td style="font-weight:bold;vertical-align:top;">wsgi_multithread</td><td style="vertical-align:top;">:</td><td><div>True</div></td></tr><tr><td style="font-weight:bold;vertical-align:top;">wsgi_run_once</td><td style="vertical-align:top;">:</td><td><div>False</div></td></tr><tr><td style="font-weight:bold;vertical-align:top;">wsgi_url_scheme</td><td style="vertical-align:top;">:</td><td><div>http</div></td></tr><tr><td style="font-weight:bold;vertical-align:top;">wsgi_version</td><td style="vertical-align:top;">:</td><td><div><table><tr><td><div>1</div></td></tr><tr><td><div>0</div></td></tr></table></div></td></tr></table></div></td></tr><tr><td style="font-weight:bold;vertical-align:top;">extension</td><td style="vertical-align:top;">:</td><td><div>html</div></td></tr><tr><td style="font-weight:bold;vertical-align:top;">folder</td><td style="vertical-align:top;">:</td><td><div>/home/hitesh96db/Documents/web2py/applications/itproject/</div></td></tr><tr><td style="font-weight:bold;vertical-align:top;">function</td><td style="vertical-align:top;">:</td><td><div>loginvalidate</div></td></tr><tr><td style="font-weight:bold;vertical-align:top;">global_settings</td><td style="vertical-align:top;">:</td><td><div><table><tr><td style="font-weight:bold;vertical-align:top;">app_folders</td><td style="vertical-align:top;">:</td><td><div>set([&#x27;/home/hitesh96db/Documents/web2py/applications/itproject/&#x27;])</div></td></tr><tr><td style="font-weight:bold;vertical-align:top;">applications_parent</td><td style="vertical-align:top;">:</td><td><div>/home/hitesh96db/Documents/web2py</div></td></tr><tr><td style="font-weight:bold;vertical-align:top;">cmd_args</td><td style="vertical-align:top;">:</td><td><div><table></table></div></td></tr><tr><td style="font-weight:bold;vertical-align:top;">cmd_options</td><td style="vertical-align:top;">:</td><td><div>&lt;Values at 0x28a8ab8: {&#x27;verbose&#x27;: False, &#x27;ip&#x27;: &#x27;127.0.0.1&#x27;, &#x27;debuglevel&#x27;: 30, &#x27;with_scheduler&#x27;: False, &#x27;ips&#x27;: [&#x27;127.0.1.1&#x27;], &#x27;shutdown_timeout&#x27;: 5, &#x27;taskbar&#x27;: False, &#x27;with_coverage&#x27;: False, &#x27;port&#x27;: 8000, &#x27;maxthreads&#x27;: None, &#x27;softcron&#x27;: False, &#x27;server_name&#x27;: &#x27;Beast&#x27;, &#x27;bpython&#x27;: False, &#x27;nogui&#x27;: False, &#x27;pid_filename&#x27;: &#x27;httpserver.pid&#x27;, &#x27;extcron&#x27;: False, &#x27;runcron&#x27;: False, &#x27;run_system_tests&#x27;: False, &#x27;test&#x27;: None, &#x27;folder&#x27;: &#x27;/home/hitesh96db/Documents/web2py&#x27;, &#x27;config&#x27;: &#x27;&#x27;, &#x27;minthreads&#x27;: None, &#x27;shell&#x27;: None, &#x27;run&#x27;: &#x27;&#x27;, &#x27;log_filename&#x27;: &#x27;httpserver.log&#x27;, &#x27;profiler_dir&#x27;: None, &#x27;args&#x27;: [&#x27;&#x27;], &#x27;socket_timeout&#x27;: 5, &#x27;ssl_ca_certificate&#x27;: None, &#x27;scheduler&#x27;: None, &#x27;interfaces&#x27;: None, &#x27;ssl_private_key&#x27;: &#x27;&#x27;, &#x27;scheduler_groups&#x27;: None, &#x27;password&#x27;: &#x27;&lt;ask&gt;&#x27;, &#x27;request_queue_size&#x27;: 5, &#x27;ssl_certificate&#x27;: &#x27;&#x27;, &#x27;cronjob&#x27;: False, &#x27;numthreads&#x27;: None, &#x27;quiet&#x27;: False, &#x27;import_models&#x27;: False, &#x27;timeout&#x27;: 10, &#x27;plain&#x27;: False, &#x27;nobanner&#x27;: False}&gt;</div></td></tr><tr><td style="font-weight:bold;vertical-align:top;">db_sessions</td><td style="vertical-align:top;">:</td><td><div>set([])</div></td></tr><tr><td style="font-weight:bold;vertical-align:top;">debugging</td><td style="vertical-align:top;">:</td><td><div>False</div></td></tr><tr><td style="font-weight:bold;vertical-align:top;">gluon_parent</td><td style="vertical-align:top;">:</td><td><div>/home/hitesh96db/Documents/web2py</div></td></tr><tr><td style="font-weight:bold;vertical-align:top;">is_jython</td><td style="vertical-align:top;">:</td><td><div>False</div></td></tr><tr><td style="font-weight:bold;vertical-align:top;">is_pypy</td><td style="vertical-align:top;">:</td><td><div>False</div></td></tr><tr><td style="font-weight:bold;vertical-align:top;">is_source</td><td style="vertical-align:top;">:</td><td><div>True</div></td></tr><tr><td style="font-weight:bold;vertical-align:top;">local_hosts</td><td style="vertical-align:top;">:</td><td><div><table><tr><td><div>Beast</div></td></tr><tr><td><div>::1</div></td></tr><tr><td><div>127.0.1.1</div></td></tr><tr><td><div>::ffff:127.0.0.1</div></td></tr><tr><td><div>127.0.0.1</div></td></tr></table></div></td></tr><tr><td style="font-weight:bold;vertical-align:top;">web2py_version</td><td style="vertical-align:top;">:</td><td><div>2.9.5-stable+timestamp.2014.03.16.02.35.39</div></td></tr></table></div></td></tr><tr><td style="font-weight:bold;vertical-align:top;">is_https</td><td style="vertical-align:top;">:</td><td><div>False</div></td></tr><tr><td style="font-weight:bold;vertical-align:top;">is_local</td><td style="vertical-align:top;">:</td><td><div>True</div></td></tr><tr><td style="font-weight:bold;vertical-align:top;">is_restful</td><td style="vertical-align:top;">:</td><td><div>False</div></td></tr><tr><td style="font-weight:bold;vertical-align:top;">now</td><td style="vertical-align:top;">:</td><td><div>datetime.datetime(2014, 3, 26, 0, 25, 38, 12847)</div></td></tr><tr><td style="font-weight:bold;vertical-align:top;">raw_args</td><td style="vertical-align:top;">:</td><td><div></div></td></tr><tr><td style="font-weight:bold;vertical-align:top;">raw_extension</td><td style="vertical-align:top;">:</td><td><div>None</div></td></tr><tr><td style="font-weight:bold;vertical-align:top;">url</td><td style="vertical-align:top;">:</td><td><div>/itproject/main/loginvalidate</div></td></tr><tr><td style="font-weight:bold;vertical-align:top;">utcnow</td><td style="vertical-align:top;">:</td><td><div>datetime.datetime(2014, 3, 25, 18, 55, 38, 12869)</div></td></tr><tr><td style="font-weight:bold;vertical-align:top;">uuid</td><td style="vertical-align:top;">:</td><td><div>itproject/127.0.0.1.2014-03-26.00-25-38.ec70fc7e-015c-4128-9c7f-49bc67f674f5</div></td></tr><tr><td style="font-weight:bold;vertical-align:top;">wsgi</td><td style="vertical-align:top;">:</td><td><div>&lt;gluon.main.LazyWSGI object at 0x7f4c1403c190&gt;</div></td></tr></table></div>'
tRp64
sS'frames'
p65
(lp66
(dp67
S'file'
p68
S'/home/hitesh96db/Documents/web2py/gluon/restricted.py'
p69
sS'dump'
p70
(dp71
S'environment'
p72
S"{'A': <class 'gluon.html.A'>, 'ANY_OF': <class 'gluon.validators.ANY_OF'>, 'B': <class 'gluon.html.B'>, 'BEAUTIFY': <class 'gluon.html.BEAUTIFY'>, 'BODY': <class 'gluon.html.BODY'>, 'BR': <class 'gluon.html.BR'>, 'BUTTON': <class 'gluon.html.BUTTON'>, 'CAT': <class 'gluon.html.CAT'>, 'CENTER': <class 'gluon.html.CENTER'>, 'CLEANUP': <class 'gluon.validators.CLEANUP'>, ...}"
p73
sS'ccode'
p74
S'<code object <module> at 0x7f4c1404f130, file "/...lications/itproject/controllers/main.py", line 1>'
p75
ssS'lnum'
p76
I220
sS'lines'
p77
(dp78
I224
S'        # do not encapsulate (obfuscate) the original RestrictedError'
p79
sI215
S'    try:'
p80
sI216
S'        if isinstance(code, types.CodeType):'
p81
sI217
S'            ccode = code'
p82
sI218
S'        else:'
p83
sI219
S'            ccode = compile2(code, layer)'
p84
sI220
S'        exec ccode in environment'
p85
sI221
S'    except HTTP:'
p86
sI222
S'        raise'
p87
sI223
S'    except RestrictedError:'
p88
ssS'call'
p89
S'(code=\'def loginvalidate():\\n#\\treturn "email %s password...\\n\\nresponse._vars=response._caller(loginvalidate)\\n\', environment={\'A\': <class \'gluon.html.A\'>, \'ANY_OF\': <class \'gluon.validators.ANY_OF\'>, \'B\': <class \'gluon.html.B\'>, \'BEAUTIFY\': <class \'gluon.html.BEAUTIFY\'>, \'BODY\': <class \'gluon.html.BODY\'>, \'BR\': <class \'gluon.html.BR\'>, \'BUTTON\': <class \'gluon.html.BUTTON\'>, \'CAT\': <class \'gluon.html.CAT\'>, \'CENTER\': <class \'gluon.html.CENTER\'>, \'CLEANUP\': <class \'gluon.validators.CLEANUP\'>, ...}, layer=\'/home/hitesh96db/Documents/web2py/applications/itproject/controllers/main.py\')'
p90
sS'func'
p91
S'restricted'
p92
sa(dp93
g68
S'/home/hitesh96db/Documents/web2py/applications/itproject/controllers/main.py'
p94
sg70
(dp95
sg76
I79
sg77
(dp96
I68
S''
sI69
S'\tstudentinfo["batch"]=batch;'
p97
sI70
S''
sI71
S'\treturn json.dumps(studentinfo)'
p98
sI72
S''
sI73
S''
sI74
S'def loginmy():'
p99
sI75
S'\treturn dict()'
p100
sI76
S'def mails():'
p101
sI77
S'\treturn dict(name=request.vars["name"])'
p102
ssg89
S'()'
p103
sg91
S'<module>'
p104
sa(dp105
g68
S'/home/hitesh96db/Documents/web2py/gluon/globals.py'
p106
sg70
(dp107
S'self'
p108
S'undefined'
p109
sS'f'
S'<function loginvalidate>'
p110
ssg76
I385
sg77
(dp111
I384
S'        self._vars = None'
p112
sI385
S'        self._caller = lambda f: f()'
p113
sI386
S'        self._view_environment = None'
p114
sI387
S'        self._custom_commit = None'
p115
sI388
S'        self._custom_rollback = None'
p116
sI389
S''
sI380
S'        self.menu = []             # used by the default view layout'
p117
sI381
S'        self.files = []            # used by web2py_ajax.html'
p118
sI382
S'        self.generic_patterns = []  # patterns to allow generic views'
p119
sI383
S"        self.delimiters = ('{{', '}}')"
p120
ssg89
S'(f=<function loginvalidate>)'
p121
sg91
S'<lambda>'
p122
sa(dp123
g68
S'/home/hitesh96db/Documents/web2py/applications/itproject/controllers/main.py'
p124
sg70
(dp125
S'br.submit'
p126
S'<bound method Browser.submit of <mechanize._mechanize.Browser instance>>'
p127
sS'br'
p128
S'<mechanize._mechanize.Browser instance>'
p129
sS'response1'
p130
S'<response_seek_wrapper at 0x28cee18 whose wrappe...fp = <mechanize._response.eofresponse instance>>>'
p131
ssg76
I30
sg77
(dp132
I32
S'\tk = response1.read()'
p133
sI33
S'\tf.write(k)'
p134
sI34
S'\tf.close()'
p135
sI25
S'\tbr["StUdent"] = request.vars["email"]'
p136
sI26
S'\tbr["password"] = request.vars["password"]'
p137
sI27
S'\t#br["rno"]="2013"'
p138
sI28
S'\t#br["grade"]="A"'
p139
sI29
S''
sI30
S'\tresponse1 = br.submit()'
p140
sI31
S"\tf = open('isas.html', 'w')"
p141
ssg89
S'()'
p142
sg91
S'loginvalidate'
p143
sa(dp144
g68
S'/usr/lib/python2.7/dist-packages/mechanize/_mechanize.py'
p145
sg70
(dp146
S'self'
p147
S'<mechanize._mechanize.Browser instance>'
p148
sS'args'
p149
S'()'
p150
sS'self.open'
p151
S'<bound method Browser.open of <mechanize._mechanize.Browser instance>>'
p152
sS'self.click'
p153
S'<bound method Browser.click of <mechanize._mechanize.Browser instance>>'
p154
sS'kwds'
p155
S'{}'
p156
ssg76
I541
sg77
(dp157
I544
S'        """Find a link and return a Request object for it.'
p158
sI545
S''
sI536
S'        Arguments are as for mechanize.HTMLForm.click().'
p159
sI537
S''
sI538
S'        Return value is same as for Browser.open().'
p160
sI539
S''
sI540
S'        """'
p161
sI541
S'        return self.open(self.click(*args, **kwds))'
p162
sI542
S''
sI543
S'    def click_link(self, link=None, **kwds):'
p163
ssg89
S'(self=<mechanize._mechanize.Browser instance>, *args=(), **kwds={})'
p164
sg91
S'submit'
p165
sa(dp166
g68
S'/usr/lib/python2.7/dist-packages/mechanize/_mechanize.py'
p167
sg70
(dp168
S'url'
p169
S'<mechanize._request.Request instance>'
p170
sS'data'
p171
S'None'
p172
sS'self'
p173
S'<mechanize._mechanize.Browser instance>'
p174
sS'self._mech_open'
p175
S'<bound method Browser._mech_open of <mechanize._mechanize.Browser instance>>'
p176
sS'timeout'
p177
S'<object object>'
p178
ssg76
I203
sg77
(dp179
I198
S'        """'
p180
sI199
S'        return self._mech_open(url, data, visit=False, timeout=timeout)'
p181
sI200
S''
sI201
S'    def open(self, url, data=None,'
p182
sI202
S'             timeout=_sockettimeout._GLOBAL_DEFAULT_TIMEOUT):'
p183
sI203
S'        return self._mech_open(url, data, timeout=timeout)'
p184
sI204
S''
sI205
S'    def _mech_open(self, url, data=None, update_history=True, visit=None,'
p185
sI206
S'                   timeout=_sockettimeout._GLOBAL_DEFAULT_TIMEOUT):'
p186
sI207
S'        try:'
p187
ssg89
S'(self=<mechanize._mechanize.Browser instance>, url=<mechanize._request.Request instance>, data=None, timeout=<object object>)'
p188
sg91
S'open'
p189
sa(dp190
g68
S'/usr/lib/python2.7/dist-packages/mechanize/_mechanize.py'
p191
sg70
(dp192
S'self'
p193
S'<mechanize._mechanize.Browser instance>'
p194
sS'request'
p195
S'<mechanize._request.Request instance>'
p196
sS'UserAgentBase.open'
p197
S'<unbound method UserAgentBase.open>'
p198
sS'global UserAgentBase'
p199
S'<class mechanize._useragent.UserAgentBase>'
p200
sS'data'
p201
S'None'
p202
sS'response'
p203
g109
ssg76
I230
sg77
(dp204
I225
S'        if visit:'
p205
sI226
S'            self._visit_request(request, update_history)'
p206
sI227
S''
sI228
S'        success = True'
p207
sI229
S'        try:'
p208
sI230
S'            response = UserAgentBase.open(self, request, data)'
p209
sI231
S'        except urllib2.HTTPError, error:'
p210
sI232
S'            success = False'
p211
sI233
S'            if error.fp is None:  # not a response'
p212
sI234
S'                raise'
p213
ssg89
S'(self=<mechanize._mechanize.Browser instance>, url=<mechanize._request.Request instance>, data=None, update_history=True, visit=True, timeout=<object object>)'
p214
sg91
S'_mech_open'
p215
sa(dp216
g68
S'/usr/lib/python2.7/dist-packages/mechanize/_opener.py'
p217
sg70
(dp218
S'urlopen'
p219
S'<unbound method OpenerDirector._open>'
p220
sS'self'
p221
S'<mechanize._mechanize.Browser instance>'
p222
sS'req'
p223
S'<mechanize._request.Request instance>'
p224
sS'data'
p225
S'None'
p226
sS'response'
p227
g109
ssg76
I193
sg77
(dp228
I192
S'        urlopen = _urllib2_fork.OpenerDirector._open'
p229
sI193
S'        response = urlopen(self, req, data)'
p230
sI194
S''
sI195
S'        # post-process response'
p231
sI196
S'        response_processors = set(self.process_response.get(req_scheme, []))'
p232
sI197
S'        response_processors.update(self._any_response)'
p233
sI188
S'                    req = meth(req)'
p234
sI189
S''
sI190
S'        # In Python >= 2.4, .open() supports processors already, so we must'
p235
sI191
S'        # call ._open() instead.'
p236
ssg89
S'(self=<mechanize._mechanize.Browser instance>, fullurl=<mechanize._request.Request instance>, data=None, timeout=<object object>)'
p237
sg91
g189
sa(dp238
g68
S'/usr/lib/python2.7/dist-packages/mechanize/_urllib2_fork.py'
p239
sg70
(dp240
S'req'
p241
S'<mechanize._request.Request instance>'
p242
ssg76
I344
sg77
(dp243
I339
S'        if result:'
p244
sI340
S'            return result'
p245
sI341
S''
sI342
S'        protocol = req.get_type()'
p246
sI343
S'        result = self._call_chain(self.handle_open, protocol, protocol +'
p247
sI344
S"                                  '_open', req)"
p248
sI345
S'        if result:'
p249
sI346
S'            return result'
p250
sI347
S''
sI348
S"        return self._call_chain(self.handle_open, 'unknown',"
p251
ssg89
S'(self=<mechanize._mechanize.Browser instance>, req=<mechanize._request.Request instance>, data=None)'
p252
sg91
S'_open'
p253
sa(dp254
g68
S'/usr/lib/python2.7/dist-packages/mechanize/_urllib2_fork.py'
p255
sg70
(dp256
S'args'
p257
S'(<mechanize._request.Request instance>,)'
p258
sS'result'
p259
g109
sS'func'
p260
S'<bound method HTTPSHandler.https_open of <mechanize._urllib2_fork.HTTPSHandler instance>>'
p261
ssg76
I332
sg77
(dp262
I327
S'        # could.  Otherwise, they return the response.'
p263
sI328
S'        handlers = chain.get(kind, ())'
p264
sI329
S'        for handler in handlers:'
p265
sI330
S'            func = getattr(handler, meth_name)'
p266
sI331
S''
sI332
S'            result = func(*args)'
p267
sI333
S'            if result is not None:'
p268
sI334
S'                return result'
p269
sI335
S''
sI336
S'    def _open(self, req, data=None):'
p270
ssg89
S"(self=<mechanize._mechanize.Browser instance>, chain={'file': [<mechanize._urllib2_fork.FileHandler instance>], 'ftp': [<mechanize._urllib2_fork.ProxyHandler instance>, <mechanize._urllib2_fork.FTPHandler instance>], 'http': [<mechanize._urllib2_fork.ProxyHandler instance>, <mechanize._urllib2_fork.HTTPHandler instance>], 'https': [<mechanize._urllib2_fork.HTTPSHandler instance>], 'unknown': [<mechanize._urllib2_fork.UnknownHandler instance>]}, kind='https', meth_name='https_open', *args=(<mechanize._request.Request instance>,))"
p271
sg91
S'_call_chain'
p272
sa(dp273
g68
S'/usr/lib/python2.7/dist-packages/mechanize/_urllib2_fork.py'
p274
sg70
(dp275
S'conn_factory'
p276
S'<mechanize._urllib2_fork.HTTPSConnectionFactory instance>'
p277
sS'self'
p278
S'<mechanize._urllib2_fork.HTTPSHandler instance>'
p279
sS'req'
p280
S'<mechanize._request.Request instance>'
p281
sS'self.do_open'
p282
S'<bound method HTTPSHandler.do_open of <mechanize._urllib2_fork.HTTPSHandler instance>>'
p283
ssg76
I1170
sg77
(dp284
I1165
S'                key_file, cert_file = self.client_cert_manager.find_key_cert('
p285
sI1166
S'                    req.get_full_url())'
p286
sI1167
S'                conn_factory = HTTPSConnectionFactory(key_file, cert_file)'
p287
sI1168
S'            else:'
p288
sI1169
S'                conn_factory = httplib.HTTPSConnection'
p289
sI1170
S'            return self.do_open(conn_factory, req)'
p290
sI1171
S''
sI1172
S'        https_request = AbstractHTTPHandler.do_request_'
p291
sI1173
S''
sI1174
S'class HTTPCookieProcessor(BaseHandler):'
p292
ssg89
S'(self=<mechanize._urllib2_fork.HTTPSHandler instance>, req=<mechanize._request.Request instance>)'
p293
sg91
S'https_open'
p294
sa(dp295
g68
S'/usr/lib/python2.7/dist-packages/mechanize/_urllib2_fork.py'
p296
sg70
(dp297
S'h'
S'<httplib.HTTPSConnection instance>'
p298
sS'r'
g109
sS'h.getresponse'
p299
S'<bound method HTTPSConnection.getresponse of <httplib.HTTPSConnection instance>>'
p300
ssg76
I1116
sg77
(dp301
I1120
S'        # Pick apart the HTTPResponse object to get the addinfourl'
p302
sI1111
S'                set_tunnel = h.set_tunnel'
p303
sI1112
S'            set_tunnel(req._tunnel_host)'
p304
sI1113
S''
sI1114
S'        try:'
p305
sI1115
S'            h.request(req.get_method(), req.get_selector(), req.data, headers)'
p306
sI1116
S'            r = h.getresponse()'
p307
sI1117
S'        except socket.error, err: # XXX what error?'
p308
sI1118
S'            raise URLError(err)'
p309
sI1119
S''
ssg89
S'(self=<mechanize._urllib2_fork.HTTPSHandler instance>, http_class=<mechanize._urllib2_fork.HTTPSConnectionFactory instance>, req=<mechanize._request.Request instance>)'
p310
sg91
S'do_open'
p311
sa(dp312
g68
S'/usr/lib/python2.7/httplib.py'
p313
sg70
(dp314
S'response.begin'
p315
S'<bound method HTTPResponse.begin of <httplib.HTTPResponse instance>>'
p316
sS'response'
p317
S'<httplib.HTTPResponse instance>'
p318
ssg76
I1030
sg77
(dp319
I1025
S'            #only add this keyword if non-default, for compatibility with'
p320
sI1026
S'            #other response_classes.'
p321
sI1027
S'            kwds["buffering"] = True;'
p322
sI1028
S'        response = self.response_class(*args, **kwds)'
p323
sI1029
S''
sI1030
S'        response.begin()'
p324
sI1031
S'        assert response.will_close != _UNKNOWN'
p325
sI1032
S'        self.__state = _CS_IDLE'
p326
sI1033
S''
sI1034
S'        if response.will_close:'
p327
ssg89
S'(self=<httplib.HTTPSConnection instance>, buffering=False)'
p328
sg91
S'getresponse'
p329
sa(dp330
g68
S'/usr/lib/python2.7/httplib.py'
p331
sg70
(dp332
S'status'
p333
g109
sS'reason'
p334
g109
sS'version'
p335
g109
sS'self'
p336
S'<httplib.HTTPResponse instance>'
p337
sS'self._read_status'
p338
S'<bound method HTTPResponse._read_status of <httplib.HTTPResponse instance>>'
p339
ssg76
I407
sg77
(dp340
I402
S"            # we've already started reading the response"
p341
sI403
S'            return'
p342
sI404
S''
sI405
S'        # read until we get a non-100 response'
p343
sI406
S'        while True:'
p344
sI407
S'            version, status, reason = self._read_status()'
p345
sI408
S'            if status != CONTINUE:'
p346
sI409
S'                break'
p347
sI410
S'            # skip the header from the 100 response'
p348
sI411
S'            while True:'
p349
ssg89
S'(self=<httplib.HTTPResponse instance>)'
p350
sg91
S'begin'
p351
sa(dp352
g68
S'/usr/lib/python2.7/httplib.py'
p353
sg70
(dp354
S'line'
p355
S"''"
p356
sS'global BadStatusLine'
p357
S"<class 'httplib.BadStatusLine'>"
p358
ssg76
I371
sg77
(dp359
I366
S'        if self.debuglevel > 0:'
p360
sI367
S'            print "reply:", repr(line)'
p361
sI368
S'        if not line:'
p362
sI369
S'            # Presumably, the server closed the connection before'
p363
sI370
S'            # sending a valid response.'
p364
sI371
S'            raise BadStatusLine(line)'
p365
sI372
S'        try:'
p366
sI373
S'            [version, status, reason] = line.split(None, 2)'
p367
sI374
S'        except ValueError:'
p368
sI375
S'            try:'
p369
ssg89
S'(self=<httplib.HTTPResponse instance>)'
p370
sg91
S'_read_status'
p371
sasS'pyver'
p372
S'Python 2.7.3: /usr/bin/python (prefix: /usr)'
p373
sS'session'
p374
g63
(S's\x1a\x00\x00\x00<div><table></table></div>'
tRp375
sS'etype'
p376
S"<class 'httplib.BadStatusLine'>"
p377
sS'date'
p378
S'Wed Mar 26 00:25:38 2014'
p379
sS'response'
p380
g63
(S's\x9e\x15\x00\x00<div><table><tr><td style="font-weight:bold;vertical-align:top;">body</td><td style="vertical-align:top;">:</td><td><div>&lt;cStringIO.StringO object at 0x7f4c1c2a0260&gt;</div></td></tr><tr><td style="font-weight:bold;vertical-align:top;">cookies</td><td style="vertical-align:top;">:</td><td><div><table><tr><td style="font-weight:bold;vertical-align:top;">session_id_itproject</td><td style="vertical-align:top;">:</td><td><div>127.0.0.1-9bc849a7-3fff-4e40-9398-36a0fc34b9ec<table><tr><td style="font-weight:bold;vertical-align:top;">comment</td><td style="vertical-align:top;">:</td><td><div></div></td></tr><tr><td style="font-weight:bold;vertical-align:top;">domain</td><td style="vertical-align:top;">:</td><td><div></div></td></tr><tr><td style="font-weight:bold;vertical-align:top;">expires</td><td style="vertical-align:top;">:</td><td><div></div></td></tr><tr><td style="font-weight:bold;vertical-align:top;">httponly</td><td style="vertical-align:top;">:</td><td><div></div></td></tr><tr><td style="font-weight:bold;vertical-align:top;">max-age</td><td style="vertical-align:top;">:</td><td><div></div></td></tr><tr><td style="font-weight:bold;vertical-align:top;">path</td><td style="vertical-align:top;">:</td><td><div>/</div></td></tr><tr><td style="font-weight:bold;vertical-align:top;">secure</td><td style="vertical-align:top;">:</td><td><div></div></td></tr><tr><td style="font-weight:bold;vertical-align:top;">version</td><td style="vertical-align:top;">:</td><td><div></div></td></tr></table></div></td></tr></table></div></td></tr><tr><td style="font-weight:bold;vertical-align:top;">delimiters</td><td style="vertical-align:top;">:</td><td><div><table><tr><td><div>{{</div></td></tr><tr><td><div>}}</div></td></tr></table></div></td></tr><tr><td style="font-weight:bold;vertical-align:top;">files</td><td style="vertical-align:top;">:</td><td><div><table></table></div></td></tr><tr><td style="font-weight:bold;vertical-align:top;">flash</td><td style="vertical-align:top;">:</td><td><div></div></td></tr><tr><td style="font-weight:bold;vertical-align:top;">generic_patterns</td><td style="vertical-align:top;">:</td><td><div><table></table></div></td></tr><tr><td style="font-weight:bold;vertical-align:top;">headers</td><td style="vertical-align:top;">:</td><td><div><table><tr><td style="font-weight:bold;vertical-align:top;">X-Powered-By</td><td style="vertical-align:top;">:</td><td><div>web2py</div></td></tr></table></div></td></tr><tr><td style="font-weight:bold;vertical-align:top;">menu</td><td style="vertical-align:top;">:</td><td><div><table></table></div></td></tr><tr><td style="font-weight:bold;vertical-align:top;">meta</td><td style="vertical-align:top;">:</td><td><div><table></table></div></td></tr><tr><td style="font-weight:bold;vertical-align:top;">models_to_run</td><td style="vertical-align:top;">:</td><td><div><table><tr><td><div>^\\w+\\.py$</div></td></tr><tr><td><div>^main/\\w+\\.py$</div></td></tr><tr><td><div>^main/loginvalidate/\\w+\\.py$</div></td></tr></table></div></td></tr><tr><td style="font-weight:bold;vertical-align:top;">postprocessing</td><td style="vertical-align:top;">:</td><td><div><table></table></div></td></tr><tr><td style="font-weight:bold;vertical-align:top;">session_client</td><td style="vertical-align:top;">:</td><td><div>127.0.0.1</div></td></tr><tr><td style="font-weight:bold;vertical-align:top;">session_cookie_compression_level</td><td style="vertical-align:top;">:</td><td><div>None</div></td></tr><tr><td style="font-weight:bold;vertical-align:top;">session_cookie_expires</td><td style="vertical-align:top;">:</td><td><div>None</div></td></tr><tr><td style="font-weight:bold;vertical-align:top;">session_cookie_key</td><td style="vertical-align:top;">:</td><td><div>None</div></td></tr><tr><td style="font-weight:bold;vertical-align:top;">session_data_name</td><td style="vertical-align:top;">:</td><td><div>session_data_itproject</div></td></tr><tr><td style="font-weight:bold;vertical-align:top;">session_file</td><td style="vertical-align:top;">:</td><td><div>None</div></td></tr><tr><td style="font-weight:bold;vertical-align:top;">session_filename</td><td style="vertical-align:top;">:</td><td><div>/home/hitesh96db/Documents/web2py/applications/itproject/sessions/127.0.0.1-9bc849a7-3fff-4e40-9398-36a0fc34b9ec</div></td></tr><tr><td style="font-weight:bold;vertical-align:top;">session_hash</td><td style="vertical-align:top;">:</td><td><div>106f4c22ca06cc343e42b73a0d8492f6</div></td></tr><tr><td style="font-weight:bold;vertical-align:top;">session_id</td><td style="vertical-align:top;">:</td><td><div>127.0.0.1-9bc849a7-3fff-4e40-9398-36a0fc34b9ec</div></td></tr><tr><td style="font-weight:bold;vertical-align:top;">session_id_name</td><td style="vertical-align:top;">:</td><td><div>session_id_itproject</div></td></tr><tr><td style="font-weight:bold;vertical-align:top;">session_masterapp</td><td style="vertical-align:top;">:</td><td><div>itproject</div></td></tr><tr><td style="font-weight:bold;vertical-align:top;">session_new</td><td style="vertical-align:top;">:</td><td><div>True</div></td></tr><tr><td style="font-weight:bold;vertical-align:top;">session_storage_type</td><td style="vertical-align:top;">:</td><td><div>file</div></td></tr><tr><td style="font-weight:bold;vertical-align:top;">status</td><td style="vertical-align:top;">:</td><td><div>200</div></td></tr><tr><td style="font-weight:bold;vertical-align:top;">view</td><td style="vertical-align:top;">:</td><td><div>main/loginvalidate.html</div></td></tr></table></div>'
tRp381
sS'locals'
p382
(dp383
g50
S"''"
p384
sS'self'
p385
S'<httplib.HTTPResponse instance>'
p386
sssS'traceback'
p387
S'Traceback (most recent call last):\n  File "/home/hitesh96db/Documents/web2py/gluon/restricted.py", line 220, in restricted\n    exec ccode in environment\n  File "/home/hitesh96db/Documents/web2py/applications/itproject/controllers/main.py", line 79, in <module>\n  File "/home/hitesh96db/Documents/web2py/gluon/globals.py", line 385, in <lambda>\n    self._caller = lambda f: f()\n  File "/home/hitesh96db/Documents/web2py/applications/itproject/controllers/main.py", line 30, in loginvalidate\n    response1 = br.submit()\n  File "/usr/lib/python2.7/dist-packages/mechanize/_mechanize.py", line 541, in submit\n    return self.open(self.click(*args, **kwds))\n  File "/usr/lib/python2.7/dist-packages/mechanize/_mechanize.py", line 203, in open\n    return self._mech_open(url, data, timeout=timeout)\n  File "/usr/lib/python2.7/dist-packages/mechanize/_mechanize.py", line 230, in _mech_open\n    response = UserAgentBase.open(self, request, data)\n  File "/usr/lib/python2.7/dist-packages/mechanize/_opener.py", line 193, in open\n    response = urlopen(self, req, data)\n  File "/usr/lib/python2.7/dist-packages/mechanize/_urllib2_fork.py", line 344, in _open\n    \'_open\', req)\n  File "/usr/lib/python2.7/dist-packages/mechanize/_urllib2_fork.py", line 332, in _call_chain\n    result = func(*args)\n  File "/usr/lib/python2.7/dist-packages/mechanize/_urllib2_fork.py", line 1170, in https_open\n    return self.do_open(conn_factory, req)\n  File "/usr/lib/python2.7/dist-packages/mechanize/_urllib2_fork.py", line 1116, in do_open\n    r = h.getresponse()\n  File "/usr/lib/python2.7/httplib.py", line 1030, in getresponse\n    response.begin()\n  File "/usr/lib/python2.7/httplib.py", line 407, in begin\n    version, status, reason = self._read_status()\n  File "/usr/lib/python2.7/httplib.py", line 371, in _read_status\n    raise BadStatusLine(line)\nBadStatusLine: \'\'\n'
p388
s.