(dp1
S'output'
p2
S"<class 'simplejson.decoder.JSONDecodeError'> Expecting property name: line 1 column 1 (char 1)"
p3
sS'layer'
p4
S'/home/hitesh96db/Documents/web2py/applications/ITWSII_StudentsMail/controllers/main.py'
p5
sS'code'
p6
S'def loginvalidate():\n\timport json\n\n        studentinfo = {}\n\n        studentinfo["name"]="Hitesh Sharma";\n        studentinfo["rollno"]="201301065";\n\n        studentinfo["batch"]="2K14";\n\n        return json.dumps(studentinfo)\n\n\ndef loginmy():\n\tif len(request.vars) != 0:\n\t\tsession["name"] = "None"\n\t\tsession["email"] = "None"\n\t\treturn dict(log=request.vars["logout"])\n\treturn dict(log=0)\n\ndef passthru():\n\tsession["name"] = request.vars["name"]\n\tsession["email"] = request.vars["email"]\n\treturn "proceed"\n\ndef getuser():\n\n\tname = session["name"]\n\temail = session["email"]\n\tc = db( db.student.email_id == email ).select()\n\tif len(c) == 0:\n\t\tdb.student.insert(email_id = email , name = name )\n\treturn "Added to Database!"\n\ndef mails():\n\tif session["name"] == "None":\n\t\tresponse.view = \'main/pls.html\'\n\t\treturn dict()\t\n\treturn dict()\n\ndef getid():\n\tsubstr = request.vars["id"]\n\tl = len(substr)\n\trows = db(db.student.email_id[:l] == substr ).select()\n\ts = ""\n\tfor row in rows:\n\t\tif s == "":\n\t\t\ts = row.email_id\t\n\t\telse:\n\t\t\ts = s+" "+row.email_id\n\treturn str(s)\n\ndef add_TA():\n        TA = {\'anish.shankar\':\'Anish Shankar\', \'anurag.soni\':\'Anurag Soni\', \'madhavan.chetlur\':\'Madhavan Malolan\', \'rajeshkumar.gupta\':\'Rajeshkumar Gupta\', \'ayush.minocha\':\'Ayush Minocha\', \'vineet.kumar\':\'Vineet Kumar\', \'ankush.jain\':\'Ankush Jain\', \'mayank.g\':\'Mayank Gupta\', \'swapna.kidambi\':\'Swapna Kidambi\', \'vishrut.mehta\':\'Vishrut Mehta\', \'gaurav.mishra\':\'Gaurav Mishra\'}\n        for i in TA:\n                c = db(db.student.email_id == i).select();\n                if(len(c) == 0):\n                        db.student.insert(email_id=i, name=TA[i]);\n\n        d = {}\n        rows = db(db.student).select();\n        for row in rows:\n                d[row.email_id] = row.name;\n\n        return "Added TAs"\n\ndef send():\n\n\timport time\n\n        sent_time = time.strftime("%H:%M:%S");\n        sent_date = time.strftime("%d-%m-%Y");\n       \n\timport gluon.contrib.simplejson\n        a = gluon.contrib.simplejson.loads(request.body.read())\n\t\n\td = {}\n\td = eval(a["receivers"])\n        for i in d:\n        \tc = db(db.student.email_id == d[i]).select();\n\t\tif(len(c) == 0):\n        \t        return "Please enter a valid e-mail address.";\n\n\t\n\tfor i in d:\n\t\tif a[\'sub\'] == "":\n\t\t\ta[\'sub\'] = "No Subject"\n        \tdb.mail.insert(sender_name=a[\'sender_name\'],rec_email=d[i], sender_email=a[\'send_id\'], subject=a[\'sub\'],mail_message=a[\'msg\'], sent_date=sent_date, sent_time=sent_time, tag=a[\'tag\']);\n\t\n\tdb.sentmail.insert(sender_name=a[\'sender_name\'],receivers=d, sender_email=a[\'send_id\'], subject=a[\'sub\'],mail_message=a[\'msg\'], sent_date=sent_date, sent_time=sent_time, tag=a[\'tag\'])      \n\n\tm = {}\n\trows = db(db.mail).select();\n\n\tfor i in d:\n\t\tb = []\n\t\tfor row in rows:\n                \tif row.rec_email == d[i]:\n                        \tb.append(row.id);\n\t\tm[d[i]] = b;\n        \n\trows = db(db.student).select();\n        for i in m:\n\t\tfor row in rows:\n                \tif row.email_id == i:\n                        \trow.update_record(mails=m[i]);\n      \n\treturn "Mail Sent!"\n\ndef show():\n\timport json\n\tct = 1;\n        mails = {};\n        user = request.vars[\'id\'];\n        row = db(db.student.email_id == user).select(db.student.mails);\n        for i in row:\n\t\tif i[\'mails\'] == None:\n\t\t\treturn str(mails);\n                for j in i[\'mails\']:\n                   temp = {}\n                   temp["send_id"] = j.sender_email\n                   temp["sub"] = j.subject\n                   temp["msg"] = j.mail_message\n                   temp["sent_date"] = j.sent_date\n                   temp["sent_time"] = j.sent_time\n                   temp["tag"] = j.tag\n                   mails[ct] = temp;\n\t\t   ct += 1;\n        return json.dumps(mails)\n\ndef count():\n\timport json\n\tc = {\'Academics\':0, \'Sports\':0, \'Events\':0, \'Cultural\':0, \'Urgent\':0, \'Lost/Found\':0, \'General\':0}\n\tname = request.get_vars[\'name\'];\n\trow = db(db.student.email_id == name).select()\n\tfor i in row:\t\n\t\ta = i.mails\n\t\n\tfor i in a:\n\t    if db.mail.id == i:\n\t        c[db.mail.tag] += 1;\n\n\treturn json.dumps(c)\n\ndef sent():\n\timport json\n\tct = 1\n\tmails = {}\n\teid = request.get_vars[\'eid\']\n\trows = db(db.mail.sender_email == eid).select()\n\tfor row in rows:\n\t\td = {}\n\t\td[\'rec_email\'] = row.rec_email\n\t\td[\'sub\'] = row.subject\n\t\td[\'msg\'] = row.mail_message\n\t\td[\'tag\'] = row.tag\n\t\td[\'time\'] = row.sent_time\n\t\td[\'date\'] = row.sent_date\n\t\tmails[ct] = d;\n\t\tct += 1\n\treturn json.dumps(mails)\n\ndef sentmails():\n\timport json\n\temail = request.vars["email"]\n\trows = db(db.sentmail.sender_email == email).select()\n\trows = rows.as_list()\n\n\treturn str(rows)\n#        k = [ x for x in range(1,len(rows)+1) ]\n\n#        js = dict(zip(k,rows))\n\n#        return json.dumps(js)\n\n\ndef drafts():\n        import time, gluon.contrib.simplejson\n        import json\n\n        date = time.strftime("%d-%m-%Y")\n        a = gluon.contrib.simplejson.loads(request.body.read())\n\n        receivers = {}\n\n        receivers = eval(a["receivers"])\n\trows = db(db.draftmail).select()\n\tflag = 0\n\tfor i in rows:\n\t\tif i.sender_name == a[\'sender_name\'] and i.receivers == receivers and i.sender_email == a[\'send_id\'] and i.subject == a[\'sub\'] and i.mail_message == a[\'msg\']:\n\t\t\treturn "already"\n\n  \tdb.draftmail.insert(sender_name=a[\'sender_name\'],receivers=receivers, sender_email=a[\'send_id\'], subject=a[\'sub\'],mail_message=a[\'msg\'], made_date=date, tag=a[\'tag\'])\n        return "Message Saved to Drafts!"\n\n\ndef getdrafts():\n\n        import time, gluon.contrib.simplejson\n        import json\n        send_id = request.vars["email"]\n\n        rows = db( db.draftmail.sender_email == send_id ).select()\n\trows = rows.as_list()\n\t\n\tk = [ x for x in range(1,len(rows)+1) ]\n\t\n\tjs = dict(zip(k,rows))\t\n       \n\treturn json.dumps(js)\n\ndef checkdrafts():\n\timport time, gluon.contrib.simplejson\n        import json\n\n        date = time.strftime("%d-%m-%Y")\n        a = gluon.contrib.simplejson.loads(request.body.read())\n\n        receivers = {}\n        receivers = eval(a[\'receivers\'])\n\t\n\tdb((db.draftmail.sender_name == a[\'sender_name\'] )&(db.draftmail.receivers == receivers)&(db.draftmail.sender_email == a[\'send_id\'])&(db.draftmail.subject == a[\'sub\'] ) &( db.draftmail.mail_message == a[\'message\'])).delete()\n        \n\treturn "draft message deleted!"\n\ndef deletedrafts():\n\t\n\timport time, gluon.contrib.simplejson\n\twhole = gluon.contrib.simplejson.loads(request.body.read())\n\t\t\n\tfor i in whole:\n\t\n\t\tk = {}\n\t\tk = eval(whole[i])\n\t\n\t\tdb((db.draftmail.sender_name == k[\'sender_name\'] )&(db.draftmail.receivers == k["receivers"])&(db.draftmail.sender_email == k[\'sender_email\'])&(db.draftmail.subject == k[\'subject\'] ) &( db.draftmail.mail_message == k[\'mail_message\'])).delete()\n\n        return "Deleted from Drafts!"\n\n\t\n\nresponse._vars=response._caller(sentmails)\n'
p7
sS'snapshot'
p8
(dp9
S'exception'
p10
(dp11
S'__module__'
p12
S"'simplejson.decoder'"
p13
sS'__getslice__'
p14
S"<method-wrapper '__getslice__' of JSONDecodeError object>"
p15
sS'__str__'
p16
S"<method-wrapper '__str__' of JSONDecodeError object>"
p17
sS'__reduce__'
p18
S'<built-in method __reduce__ of JSONDecodeError object>'
p19
sS'pos'
p20
S'1'
sS'endlineno'
p21
S'None'
p22
sS'__dict__'
p23
S'{\'colno\': 1, \'doc\': "{\'0\': \'hitesh.sharma\'}", \'end\': None, \'endcolno\': None, \'endlineno\': None, \'lineno\': 1, \'msg\': \'Expecting property name\', \'pos\': 1}'
p24
sS'__sizeof__'
p25
S'<built-in method __sizeof__ of JSONDecodeError object>'
p26
sS'__weakref__'
p27
S'None'
p28
sS'__init__'
p29
S"<bound method JSONDecodeError.__init__ of JSONDe...cting property name: line 1 column 1 (char 1)',)>"
p30
sS'__setattr__'
p31
S"<method-wrapper '__setattr__' of JSONDecodeError object>"
p32
sS'__reduce_ex__'
p33
S'<built-in method __reduce_ex__ of JSONDecodeError object>'
p34
sS'end'
p35
S'None'
p36
sS'__new__'
p37
S'<built-in method __new__ of type object>'
p38
sS'__format__'
p39
S'<built-in method __format__ of JSONDecodeError object>'
p40
sS'__class__'
p41
S"<class 'simplejson.decoder.JSONDecodeError'>"
p42
sS'lineno'
p43
S'1'
sS'msg'
p44
S"'Expecting property name'"
p45
sS'__doc__'
p46
S"'Subclass of ValueError with the following additi...e column corresponding to end (may be None)\\n\\n    '"
p47
sS'__getitem__'
p48
S"<method-wrapper '__getitem__' of JSONDecodeError object>"
p49
sS'__setstate__'
p50
S'<built-in method __setstate__ of JSONDecodeError object>'
p51
sS'__getattribute__'
p52
S"<method-wrapper '__getattribute__' of JSONDecodeError object>"
p53
sS'args'
p54
S"('Expecting property name: line 1 column 1 (char 1)',)"
p55
sS'__subclasshook__'
p56
S'<built-in method __subclasshook__ of type object>'
p57
sS'colno'
p58
S'1'
sS'__unicode__'
p59
S'<built-in method __unicode__ of JSONDecodeError object>'
p60
sS'doc'
p61
S'"{\'0\': \'hitesh.sharma\'}"'
p62
sS'endcolno'
p63
S'None'
p64
sS'__delattr__'
p65
S"<method-wrapper '__delattr__' of JSONDecodeError object>"
p66
sS'__repr__'
p67
S"<method-wrapper '__repr__' of JSONDecodeError object>"
p68
sS'__hash__'
p69
S"<method-wrapper '__hash__' of JSONDecodeError object>"
p70
ssS'evalue'
p71
S'Expecting property name: line 1 column 1 (char 1)'
p72
sS'request'
p73
cgluon.html
XML_unpickle
p74
(S's\xdbZ\x00\x00<div><table><tr><td style="font-weight:bold;vertical-align:top;">ajax</td><td style="vertical-align:top;">:</td><td><div>False</div></td></tr><tr><td style="font-weight:bold;vertical-align:top;">application</td><td style="vertical-align:top;">:</td><td><div>ITWSII_StudentsMail</div></td></tr><tr><td style="font-weight:bold;vertical-align:top;">args</td><td style="vertical-align:top;">:</td><td><div><table></table></div></td></tr><tr><td style="font-weight:bold;vertical-align:top;">cid</td><td style="vertical-align:top;">:</td><td><div>None</div></td></tr><tr><td style="font-weight:bold;vertical-align:top;">client</td><td style="vertical-align:top;">:</td><td><div>127.0.0.1</div></td></tr><tr><td style="font-weight:bold;vertical-align:top;">controller</td><td style="vertical-align:top;">:</td><td><div>main</div></td></tr><tr><td style="font-weight:bold;vertical-align:top;">cookies</td><td style="vertical-align:top;">:</td><td><div><table><tr><td style="font-weight:bold;vertical-align:top;">session_id_admin</td><td style="vertical-align:top;">:</td><td><div>127.0.0.1-e435a32b-2961-4b98-993a-591c3af480c3<table><tr><td style="font-weight:bold;vertical-align:top;">comment</td><td style="vertical-align:top;">:</td><td><div></div></td></tr><tr><td style="font-weight:bold;vertical-align:top;">domain</td><td style="vertical-align:top;">:</td><td><div></div></td></tr><tr><td style="font-weight:bold;vertical-align:top;">expires</td><td style="vertical-align:top;">:</td><td><div></div></td></tr><tr><td style="font-weight:bold;vertical-align:top;">httponly</td><td style="vertical-align:top;">:</td><td><div></div></td></tr><tr><td style="font-weight:bold;vertical-align:top;">max-age</td><td style="vertical-align:top;">:</td><td><div></div></td></tr><tr><td style="font-weight:bold;vertical-align:top;">path</td><td style="vertical-align:top;">:</td><td><div></div></td></tr><tr><td style="font-weight:bold;vertical-align:top;">secure</td><td style="vertical-align:top;">:</td><td><div></div></td></tr><tr><td style="font-weight:bold;vertical-align:top;">version</td><td style="vertical-align:top;">:</td><td><div></div></td></tr></table></div></td></tr><tr><td style="font-weight:bold;vertical-align:top;">session_id_itproject</td><td style="vertical-align:top;">:</td><td><div>127.0.0.1-aa6f6461-2d51-468b-be28-4545ee982a35<table><tr><td style="font-weight:bold;vertical-align:top;">comment</td><td style="vertical-align:top;">:</td><td><div></div></td></tr><tr><td style="font-weight:bold;vertical-align:top;">domain</td><td style="vertical-align:top;">:</td><td><div></div></td></tr><tr><td style="font-weight:bold;vertical-align:top;">expires</td><td style="vertical-align:top;">:</td><td><div></div></td></tr><tr><td style="font-weight:bold;vertical-align:top;">httponly</td><td style="vertical-align:top;">:</td><td><div></div></td></tr><tr><td style="font-weight:bold;vertical-align:top;">max-age</td><td style="vertical-align:top;">:</td><td><div></div></td></tr><tr><td style="font-weight:bold;vertical-align:top;">path</td><td style="vertical-align:top;">:</td><td><div></div></td></tr><tr><td style="font-weight:bold;vertical-align:top;">secure</td><td style="vertical-align:top;">:</td><td><div></div></td></tr><tr><td style="font-weight:bold;vertical-align:top;">version</td><td style="vertical-align:top;">:</td><td><div></div></td></tr></table></div></td></tr><tr><td style="font-weight:bold;vertical-align:top;">session_id_itwsii_studentsmail</td><td style="vertical-align:top;">:</td><td><div>127.0.0.1-6b6bad34-a869-4dc9-8ca2-640797bb64b7<table><tr><td style="font-weight:bold;vertical-align:top;">comment</td><td style="vertical-align:top;">:</td><td><div></div></td></tr><tr><td style="font-weight:bold;vertical-align:top;">domain</td><td style="vertical-align:top;">:</td><td><div></div></td></tr><tr><td style="font-weight:bold;vertical-align:top;">expires</td><td style="vertical-align:top;">:</td><td><div></div></td></tr><tr><td style="font-weight:bold;vertical-align:top;">httponly</td><td style="vertical-align:top;">:</td><td><div></div></td></tr><tr><td style="font-weight:bold;vertical-align:top;">max-age</td><td style="vertical-align:top;">:</td><td><div></div></td></tr><tr><td style="font-weight:bold;vertical-align:top;">path</td><td style="vertical-align:top;">:</td><td><div></div></td></tr><tr><td style="font-weight:bold;vertical-align:top;">secure</td><td style="vertical-align:top;">:</td><td><div></div></td></tr><tr><td style="font-weight:bold;vertical-align:top;">version</td><td style="vertical-align:top;">:</td><td><div></div></td></tr></table></div></td></tr></table></div></td></tr><tr><td style="font-weight:bold;vertical-align:top;">env</td><td style="vertical-align:top;">:</td><td><div><table><tr><td style="font-weight:bold;vertical-align:top;">HTTP_ACCEPT</td><td style="vertical-align:top;">:</td><td><div>text/html,application/xhtml+xml,application/xml;q=0.9,*/*;q=0.8</div></td></tr><tr><td style="font-weight:bold;vertical-align:top;">HTTP_ACCEPT_ENCODING</td><td style="vertical-align:top;">:</td><td><div>gzip, deflate</div></td></tr><tr><td style="font-weight:bold;vertical-align:top;">HTTP_ACCEPT_LANGUAGE</td><td style="vertical-align:top;">:</td><td><div>en-US,en;q=0.5</div></td></tr><tr><td style="font-weight:bold;vertical-align:top;">HTTP_CONNECTION</td><td style="vertical-align:top;">:</td><td><div>keep-alive</div></td></tr><tr><td style="font-weight:bold;vertical-align:top;">HTTP_COOKIE</td><td style="vertical-align:top;">:</td><td><div>session_id_itproject=127.0.0.1-aa6f6461-2d51-468b-be28-4545ee982a35; session_id_itwsii_studentsmail=127.0.0.1-6b6bad34-a869-4dc9-8ca2-640797bb64b7; session_id_admin=127.0.0.1-e435a32b-2961-4b98-993a-591c3af480c3</div></td></tr><tr><td style="font-weight:bold;vertical-align:top;">HTTP_HOST</td><td style="vertical-align:top;">:</td><td><div>127.0.0.1:8000</div></td></tr><tr><td style="font-weight:bold;vertical-align:top;">HTTP_REFERER</td><td style="vertical-align:top;">:</td><td><div>http://127.0.0.1:8000/ITWSII_StudentsMail/main/mails</div></td></tr><tr><td style="font-weight:bold;vertical-align:top;">HTTP_USER_AGENT</td><td style="vertical-align:top;">:</td><td><div>Mozilla/5.0 (X11; Ubuntu; Linux x86_64; rv:28.0) Gecko/20100101 Firefox/28.0</div></td></tr><tr><td style="font-weight:bold;vertical-align:top;">PATH_INFO</td><td style="vertical-align:top;">:</td><td><div>/ITWSII_StudentsMail/main/sentmails</div></td></tr><tr><td style="font-weight:bold;vertical-align:top;">QUERY_STRING</td><td style="vertical-align:top;">:</td><td><div>email=hitesh.sharma</div></td></tr><tr><td style="font-weight:bold;vertical-align:top;">REMOTE_ADDR</td><td style="vertical-align:top;">:</td><td><div>127.0.0.1</div></td></tr><tr><td style="font-weight:bold;vertical-align:top;">REMOTE_PORT</td><td style="vertical-align:top;">:</td><td><div>35274</div></td></tr><tr><td style="font-weight:bold;vertical-align:top;">REQUEST_METHOD</td><td style="vertical-align:top;">:</td><td><div>GET</div></td></tr><tr><td style="font-weight:bold;vertical-align:top;">SCRIPT_NAME</td><td style="vertical-align:top;">:</td><td><div></div></td></tr><tr><td style="font-weight:bold;vertical-align:top;">SERVER_NAME</td><td style="vertical-align:top;">:</td><td><div>Beast</div></td></tr><tr><td style="font-weight:bold;vertical-align:top;">SERVER_PORT</td><td style="vertical-align:top;">:</td><td><div>8000</div></td></tr><tr><td style="font-weight:bold;vertical-align:top;">SERVER_PROTOCOL</td><td style="vertical-align:top;">:</td><td><div>HTTP/1.1</div></td></tr><tr><td style="font-weight:bold;vertical-align:top;">SERVER_SOFTWARE</td><td style="vertical-align:top;">:</td><td><div>Rocket 1.2.6</div></td></tr><tr><td style="font-weight:bold;vertical-align:top;">app_folders</td><td style="vertical-align:top;">:</td><td><div>set([&#x27;/home/hitesh96db/Documents/web2py/applications/ITWSII_StudentsMail/&#x27;, &#x27;/home/hitesh96db/Documents/web2py/applications/admin/&#x27;, &#x27;/home/hitesh96db/Documents/web2py/applications/itproject/&#x27;])</div></td></tr><tr><td style="font-weight:bold;vertical-align:top;">applications_parent</td><td style="vertical-align:top;">:</td><td><div>/home/hitesh96db/Documents/web2py</div></td></tr><tr><td style="font-weight:bold;vertical-align:top;">cmd_args</td><td style="vertical-align:top;">:</td><td><div><table></table></div></td></tr><tr><td style="font-weight:bold;vertical-align:top;">cmd_options</td><td style="vertical-align:top;">:</td><td><div>&lt;Values at 0x2d05878: {&#x27;verbose&#x27;: False, &#x27;ip&#x27;: &#x27;127.0.0.1&#x27;, &#x27;debuglevel&#x27;: 30, &#x27;with_scheduler&#x27;: False, &#x27;ips&#x27;: [&#x27;127.0.1.1&#x27;], &#x27;shutdown_timeout&#x27;: 5, &#x27;taskbar&#x27;: False, &#x27;with_coverage&#x27;: False, &#x27;port&#x27;: 8000, &#x27;maxthreads&#x27;: None, &#x27;softcron&#x27;: False, &#x27;server_name&#x27;: &#x27;Beast&#x27;, &#x27;bpython&#x27;: False, &#x27;nogui&#x27;: False, &#x27;pid_filename&#x27;: &#x27;httpserver.pid&#x27;, &#x27;extcron&#x27;: False, &#x27;runcron&#x27;: False, &#x27;run_system_tests&#x27;: False, &#x27;test&#x27;: None, &#x27;folder&#x27;: &#x27;/home/hitesh96db/Documents/web2py&#x27;, &#x27;config&#x27;: &#x27;&#x27;, &#x27;minthreads&#x27;: None, &#x27;shell&#x27;: None, &#x27;run&#x27;: &#x27;&#x27;, &#x27;log_filename&#x27;: &#x27;httpserver.log&#x27;, &#x27;profiler_dir&#x27;: None, &#x27;args&#x27;: [&#x27;&#x27;], &#x27;socket_timeout&#x27;: 5, &#x27;ssl_ca_certificate&#x27;: None, &#x27;scheduler&#x27;: None, &#x27;interfaces&#x27;: None, &#x27;ssl_private_key&#x27;: &#x27;&#x27;, &#x27;scheduler_groups&#x27;: None, &#x27;password&#x27;: &#x27;&lt;ask&gt;&#x27;, &#x27;request_queue_size&#x27;: 5, &#x27;ssl_certificate&#x27;: &#x27;&#x27;, &#x27;cronjob&#x27;: False, &#x27;numthreads&#x27;: None, &#x27;quiet&#x27;: False, &#x27;import_models&#x27;: False, &#x27;timeout&#x27;: 10, &#x27;plain&#x27;: False, &#x27;nobanner&#x27;: False}&gt;</div></td></tr><tr><td style="font-weight:bold;vertical-align:top;">db_sessions</td><td style="vertical-align:top;">:</td><td><div>set([])</div></td></tr><tr><td style="font-weight:bold;vertical-align:top;">debugging</td><td style="vertical-align:top;">:</td><td><div>False</div></td></tr><tr><td style="font-weight:bold;vertical-align:top;">gluon_parent</td><td style="vertical-align:top;">:</td><td><div>/home/hitesh96db/Documents/web2py</div></td></tr><tr><td style="font-weight:bold;vertical-align:top;">http_accept</td><td style="vertical-align:top;">:</td><td><div>text/html,application/xhtml+xml,application/xml;q=0.9,*/*;q=0.8</div></td></tr><tr><td style="font-weight:bold;vertical-align:top;">http_accept_encoding</td><td style="vertical-align:top;">:</td><td><div>gzip, deflate</div></td></tr><tr><td style="font-weight:bold;vertical-align:top;">http_accept_language</td><td style="vertical-align:top;">:</td><td><div>en-US,en;q=0.5</div></td></tr><tr><td style="font-weight:bold;vertical-align:top;">http_connection</td><td style="vertical-align:top;">:</td><td><div>keep-alive</div></td></tr><tr><td style="font-weight:bold;vertical-align:top;">http_cookie</td><td style="vertical-align:top;">:</td><td><div>session_id_itproject=127.0.0.1-aa6f6461-2d51-468b-be28-4545ee982a35; session_id_itwsii_studentsmail=127.0.0.1-6b6bad34-a869-4dc9-8ca2-640797bb64b7; session_id_admin=127.0.0.1-e435a32b-2961-4b98-993a-591c3af480c3</div></td></tr><tr><td style="font-weight:bold;vertical-align:top;">http_host</td><td style="vertical-align:top;">:</td><td><div>127.0.0.1:8000</div></td></tr><tr><td style="font-weight:bold;vertical-align:top;">http_referer</td><td style="vertical-align:top;">:</td><td><div>http://127.0.0.1:8000/ITWSII_StudentsMail/main/mails</div></td></tr><tr><td style="font-weight:bold;vertical-align:top;">http_user_agent</td><td style="vertical-align:top;">:</td><td><div>Mozilla/5.0 (X11; Ubuntu; Linux x86_64; rv:28.0) Gecko/20100101 Firefox/28.0</div></td></tr><tr><td style="font-weight:bold;vertical-align:top;">is_jython</td><td style="vertical-align:top;">:</td><td><div>False</div></td></tr><tr><td style="font-weight:bold;vertical-align:top;">is_pypy</td><td style="vertical-align:top;">:</td><td><div>False</div></td></tr><tr><td style="font-weight:bold;vertical-align:top;">is_source</td><td style="vertical-align:top;">:</td><td><div>True</div></td></tr><tr><td style="font-weight:bold;vertical-align:top;">local_hosts</td><td style="vertical-align:top;">:</td><td><div><table><tr><td><div>Beast</div></td></tr><tr><td><div>::1</div></td></tr><tr><td><div>127.0.1.1</div></td></tr><tr><td><div>::ffff:127.0.0.1</div></td></tr><tr><td><div>127.0.0.1</div></td></tr></table></div></td></tr><tr><td style="font-weight:bold;vertical-align:top;">path_info</td><td style="vertical-align:top;">:</td><td><div>/ITWSII_StudentsMail/main/sentmails</div></td></tr><tr><td style="font-weight:bold;vertical-align:top;">query_string</td><td style="vertical-align:top;">:</td><td><div>email=hitesh.sharma</div></td></tr><tr><td style="font-weight:bold;vertical-align:top;">remote_addr</td><td style="vertical-align:top;">:</td><td><div>127.0.0.1</div></td></tr><tr><td style="font-weight:bold;vertical-align:top;">remote_port</td><td style="vertical-align:top;">:</td><td><div>35274</div></td></tr><tr><td style="font-weight:bold;vertical-align:top;">request_method</td><td style="vertical-align:top;">:</td><td><div>GET</div></td></tr><tr><td style="font-weight:bold;vertical-align:top;">request_uri</td><td style="vertical-align:top;">:</td><td><div>/ITWSII_StudentsMail/main/sentmails?email=hitesh.sharma</div></td></tr><tr><td style="font-weight:bold;vertical-align:top;">script_name</td><td style="vertical-align:top;">:</td><td><div></div></td></tr><tr><td style="font-weight:bold;vertical-align:top;">server_name</td><td style="vertical-align:top;">:</td><td><div>Beast</div></td></tr><tr><td style="font-weight:bold;vertical-align:top;">server_port</td><td style="vertical-align:top;">:</td><td><div>8000</div></td></tr><tr><td style="font-weight:bold;vertical-align:top;">server_protocol</td><td style="vertical-align:top;">:</td><td><div>HTTP/1.1</div></td></tr><tr><td style="font-weight:bold;vertical-align:top;">server_software</td><td style="vertical-align:top;">:</td><td><div>Rocket 1.2.6</div></td></tr><tr><td style="font-weight:bold;vertical-align:top;">web2py_path</td><td style="vertical-align:top;">:</td><td><div>/home/hitesh96db/Documents/web2py</div></td></tr><tr><td style="font-weight:bold;vertical-align:top;">web2py_version</td><td style="vertical-align:top;">:</td><td><div>2.9.5-stable+timestamp.2014.03.16.02.35.39</div></td></tr><tr><td style="font-weight:bold;vertical-align:top;">wsgi.errors</td><td style="vertical-align:top;">:</td><td><div>&lt;open file &#x27;&lt;stderr&gt;&#x27;, mode &#x27;w&#x27; at 0x7f7b77739270&gt;</div></td></tr><tr><td style="font-weight:bold;vertical-align:top;">wsgi.file_wrapper</td><td style="vertical-align:top;">:</td><td><div>&lt;class wsgiref.util.FileWrapper at 0x2c94050&gt;</div></td></tr><tr><td style="font-weight:bold;vertical-align:top;">wsgi.input</td><td style="vertical-align:top;">:</td><td><div>&lt;socket._fileobject object at 0x7f7b20520dd0&gt;</div></td></tr><tr><td style="font-weight:bold;vertical-align:top;">wsgi.multiprocess</td><td style="vertical-align:top;">:</td><td><div>False</div></td></tr><tr><td style="font-weight:bold;vertical-align:top;">wsgi.multithread</td><td style="vertical-align:top;">:</td><td><div>True</div></td></tr><tr><td style="font-weight:bold;vertical-align:top;">wsgi.run_once</td><td style="vertical-align:top;">:</td><td><div>False</div></td></tr><tr><td style="font-weight:bold;vertical-align:top;">wsgi.url_scheme</td><td style="vertical-align:top;">:</td><td><div>http</div></td></tr><tr><td style="font-weight:bold;vertical-align:top;">wsgi.version</td><td style="vertical-align:top;">:</td><td><div><table><tr><td><div>1</div></td></tr><tr><td><div>0</div></td></tr></table></div></td></tr><tr><td style="font-weight:bold;vertical-align:top;">wsgi_errors</td><td style="vertical-align:top;">:</td><td><div>&lt;open file &#x27;&lt;stderr&gt;&#x27;, mode &#x27;w&#x27; at 0x7f7b77739270&gt;</div></td></tr><tr><td style="font-weight:bold;vertical-align:top;">wsgi_file_wrapper</td><td style="vertical-align:top;">:</td><td><div>&lt;class wsgiref.util.FileWrapper at 0x2c94050&gt;</div></td></tr><tr><td style="font-weight:bold;vertical-align:top;">wsgi_input</td><td style="vertical-align:top;">:</td><td><div>&lt;socket._fileobject object at 0x7f7b20520dd0&gt;</div></td></tr><tr><td style="font-weight:bold;vertical-align:top;">wsgi_multiprocess</td><td style="vertical-align:top;">:</td><td><div>False</div></td></tr><tr><td style="font-weight:bold;vertical-align:top;">wsgi_multithread</td><td style="vertical-align:top;">:</td><td><div>True</div></td></tr><tr><td style="font-weight:bold;vertical-align:top;">wsgi_run_once</td><td style="vertical-align:top;">:</td><td><div>False</div></td></tr><tr><td style="font-weight:bold;vertical-align:top;">wsgi_url_scheme</td><td style="vertical-align:top;">:</td><td><div>http</div></td></tr><tr><td style="font-weight:bold;vertical-align:top;">wsgi_version</td><td style="vertical-align:top;">:</td><td><div><table><tr><td><div>1</div></td></tr><tr><td><div>0</div></td></tr></table></div></td></tr></table></div></td></tr><tr><td style="font-weight:bold;vertical-align:top;">extension</td><td style="vertical-align:top;">:</td><td><div>html</div></td></tr><tr><td style="font-weight:bold;vertical-align:top;">folder</td><td style="vertical-align:top;">:</td><td><div>/home/hitesh96db/Documents/web2py/applications/ITWSII_StudentsMail/</div></td></tr><tr><td style="font-weight:bold;vertical-align:top;">function</td><td style="vertical-align:top;">:</td><td><div>sentmails</div></td></tr><tr><td style="font-weight:bold;vertical-align:top;">global_settings</td><td style="vertical-align:top;">:</td><td><div><table><tr><td style="font-weight:bold;vertical-align:top;">app_folders</td><td style="vertical-align:top;">:</td><td><div>set([&#x27;/home/hitesh96db/Documents/web2py/applications/ITWSII_StudentsMail/&#x27;, &#x27;/home/hitesh96db/Documents/web2py/applications/admin/&#x27;, &#x27;/home/hitesh96db/Documents/web2py/applications/itproject/&#x27;])</div></td></tr><tr><td style="font-weight:bold;vertical-align:top;">applications_parent</td><td style="vertical-align:top;">:</td><td><div>/home/hitesh96db/Documents/web2py</div></td></tr><tr><td style="font-weight:bold;vertical-align:top;">cmd_args</td><td style="vertical-align:top;">:</td><td><div><table></table></div></td></tr><tr><td style="font-weight:bold;vertical-align:top;">cmd_options</td><td style="vertical-align:top;">:</td><td><div>&lt;Values at 0x2d05878: {&#x27;verbose&#x27;: False, &#x27;ip&#x27;: &#x27;127.0.0.1&#x27;, &#x27;debuglevel&#x27;: 30, &#x27;with_scheduler&#x27;: False, &#x27;ips&#x27;: [&#x27;127.0.1.1&#x27;], &#x27;shutdown_timeout&#x27;: 5, &#x27;taskbar&#x27;: False, &#x27;with_coverage&#x27;: False, &#x27;port&#x27;: 8000, &#x27;maxthreads&#x27;: None, &#x27;softcron&#x27;: False, &#x27;server_name&#x27;: &#x27;Beast&#x27;, &#x27;bpython&#x27;: False, &#x27;nogui&#x27;: False, &#x27;pid_filename&#x27;: &#x27;httpserver.pid&#x27;, &#x27;extcron&#x27;: False, &#x27;runcron&#x27;: False, &#x27;run_system_tests&#x27;: False, &#x27;test&#x27;: None, &#x27;folder&#x27;: &#x27;/home/hitesh96db/Documents/web2py&#x27;, &#x27;config&#x27;: &#x27;&#x27;, &#x27;minthreads&#x27;: None, &#x27;shell&#x27;: None, &#x27;run&#x27;: &#x27;&#x27;, &#x27;log_filename&#x27;: &#x27;httpserver.log&#x27;, &#x27;profiler_dir&#x27;: None, &#x27;args&#x27;: [&#x27;&#x27;], &#x27;socket_timeout&#x27;: 5, &#x27;ssl_ca_certificate&#x27;: None, &#x27;scheduler&#x27;: None, &#x27;interfaces&#x27;: None, &#x27;ssl_private_key&#x27;: &#x27;&#x27;, &#x27;scheduler_groups&#x27;: None, &#x27;password&#x27;: &#x27;&lt;ask&gt;&#x27;, &#x27;request_queue_size&#x27;: 5, &#x27;ssl_certificate&#x27;: &#x27;&#x27;, &#x27;cronjob&#x27;: False, &#x27;numthreads&#x27;: None, &#x27;quiet&#x27;: False, &#x27;import_models&#x27;: False, &#x27;timeout&#x27;: 10, &#x27;plain&#x27;: False, &#x27;nobanner&#x27;: False}&gt;</div></td></tr><tr><td style="font-weight:bold;vertical-align:top;">db_sessions</td><td style="vertical-align:top;">:</td><td><div>set([])</div></td></tr><tr><td style="font-weight:bold;vertical-align:top;">debugging</td><td style="vertical-align:top;">:</td><td><div>False</div></td></tr><tr><td style="font-weight:bold;vertical-align:top;">gluon_parent</td><td style="vertical-align:top;">:</td><td><div>/home/hitesh96db/Documents/web2py</div></td></tr><tr><td style="font-weight:bold;vertical-align:top;">is_jython</td><td style="vertical-align:top;">:</td><td><div>False</div></td></tr><tr><td style="font-weight:bold;vertical-align:top;">is_pypy</td><td style="vertical-align:top;">:</td><td><div>False</div></td></tr><tr><td style="font-weight:bold;vertical-align:top;">is_source</td><td style="vertical-align:top;">:</td><td><div>True</div></td></tr><tr><td style="font-weight:bold;vertical-align:top;">local_hosts</td><td style="vertical-align:top;">:</td><td><div><table><tr><td><div>Beast</div></td></tr><tr><td><div>::1</div></td></tr><tr><td><div>127.0.1.1</div></td></tr><tr><td><div>::ffff:127.0.0.1</div></td></tr><tr><td><div>127.0.0.1</div></td></tr></table></div></td></tr><tr><td style="font-weight:bold;vertical-align:top;">web2py_version</td><td style="vertical-align:top;">:</td><td><div>2.9.5-stable+timestamp.2014.03.16.02.35.39</div></td></tr></table></div></td></tr><tr><td style="font-weight:bold;vertical-align:top;">is_https</td><td style="vertical-align:top;">:</td><td><div>False</div></td></tr><tr><td style="font-weight:bold;vertical-align:top;">is_local</td><td style="vertical-align:top;">:</td><td><div>True</div></td></tr><tr><td style="font-weight:bold;vertical-align:top;">is_restful</td><td style="vertical-align:top;">:</td><td><div>False</div></td></tr><tr><td style="font-weight:bold;vertical-align:top;">now</td><td style="vertical-align:top;">:</td><td><div>datetime.datetime(2014, 4, 9, 2, 5, 24, 336051)</div></td></tr><tr><td style="font-weight:bold;vertical-align:top;">raw_args</td><td style="vertical-align:top;">:</td><td><div></div></td></tr><tr><td style="font-weight:bold;vertical-align:top;">raw_extension</td><td style="vertical-align:top;">:</td><td><div>None</div></td></tr><tr><td style="font-weight:bold;vertical-align:top;">url</td><td style="vertical-align:top;">:</td><td><div>/ITWSII_StudentsMail/main/sentmails</div></td></tr><tr><td style="font-weight:bold;vertical-align:top;">utcnow</td><td style="vertical-align:top;">:</td><td><div>datetime.datetime(2014, 4, 8, 20, 35, 24, 336074)</div></td></tr><tr><td style="font-weight:bold;vertical-align:top;">uuid</td><td style="vertical-align:top;">:</td><td><div>ITWSII_StudentsMail/127.0.0.1.2014-04-09.02-05-24.c1eff1ec-a266-4d2d-b624-59142a44ac48</div></td></tr><tr><td style="font-weight:bold;vertical-align:top;">wsgi</td><td style="vertical-align:top;">:</td><td><div>&lt;gluon.main.LazyWSGI object at 0x7f7b144ee990&gt;</div></td></tr></table></div>'
tRp75
sS'frames'
p76
(lp77
(dp78
S'file'
p79
S'/home/hitesh96db/Documents/web2py/gluon/restricted.py'
p80
sS'dump'
p81
(dp82
S'environment'
p83
S"{'A': <class 'gluon.html.A'>, 'ANY_OF': <class 'gluon.validators.ANY_OF'>, 'Auth': <class 'gluon.tools.Auth'>, 'B': <class 'gluon.html.B'>, 'BEAUTIFY': <class 'gluon.html.BEAUTIFY'>, 'BODY': <class 'gluon.html.BODY'>, 'BR': <class 'gluon.html.BR'>, 'BUTTON': <class 'gluon.html.BUTTON'>, 'CAT': <class 'gluon.html.CAT'>, 'CENTER': <class 'gluon.html.CENTER'>, ...}"
p84
sS'ccode'
p85
S'<code object <module> at 0x7f7b144f60b0, file "/...ITWSII_StudentsMail/controllers/main.py", line 1>'
p86
ssS'lnum'
p87
I220
sS'lines'
p88
(dp89
I224
S'        # do not encapsulate (obfuscate) the original RestrictedError'
p90
sI215
S'    try:'
p91
sI216
S'        if isinstance(code, types.CodeType):'
p92
sI217
S'            ccode = code'
p93
sI218
S'        else:'
p94
sI219
S'            ccode = compile2(code, layer)'
p95
sI220
S'        exec ccode in environment'
p96
sI221
S'    except HTTP:'
p97
sI222
S'        raise'
p98
sI223
S'    except RestrictedError:'
p99
ssS'call'
p100
S'(code=\'def loginvalidate():\\n\\timport json\\n\\n        stude..."\\n\\n\\t\\n\\nresponse._vars=response._caller(sentmails)\\n\', environment={\'A\': <class \'gluon.html.A\'>, \'ANY_OF\': <class \'gluon.validators.ANY_OF\'>, \'Auth\': <class \'gluon.tools.Auth\'>, \'B\': <class \'gluon.html.B\'>, \'BEAUTIFY\': <class \'gluon.html.BEAUTIFY\'>, \'BODY\': <class \'gluon.html.BODY\'>, \'BR\': <class \'gluon.html.BR\'>, \'BUTTON\': <class \'gluon.html.BUTTON\'>, \'CAT\': <class \'gluon.html.CAT\'>, \'CENTER\': <class \'gluon.html.CENTER\'>, ...}, layer=\'/home/hitesh96db/Documents/web2py/applications/ITWSII_StudentsMail/controllers/main.py\')'
p101
sS'func'
p102
S'restricted'
p103
sa(dp104
g79
S'/home/hitesh96db/Documents/web2py/applications/ITWSII_StudentsMail/controllers/main.py'
p105
sg81
(dp106
sg87
I242
sg88
(dp107
I231
S'\tfor i in whole:'
p108
sI232
S''
sI233
S'\t\tk = {}'
p109
sI234
S'\t\tk = eval(whole[i])'
p110
sI235
S''
sI236
S'\t\tdb((db.draftmail.sender_name == k[\'sender_name\'] )&(db.draftmail.receivers == k["receivers"])&(db.draftmail.sender_email == k[\'sender_email\'])&(db.draftmail.subject == k[\'subject\'] ) &( db.draftmail.mail_message == k[\'mail_message\'])).delete()'
p111
sI237
S''
sI238
S'        return "Deleted from Drafts!"'
p112
sI239
S''
sI240
S''
ssg100
S'()'
p113
sg102
S'<module>'
p114
sa(dp115
g79
S'/home/hitesh96db/Documents/web2py/gluon/globals.py'
p116
sg81
(dp117
S'self'
p118
S'undefined'
p119
sS'f'
S'<function sentmails>'
p120
ssg87
I385
sg88
(dp121
I384
S'        self._vars = None'
p122
sI385
S'        self._caller = lambda f: f()'
p123
sI386
S'        self._view_environment = None'
p124
sI387
S'        self._custom_commit = None'
p125
sI388
S'        self._custom_rollback = None'
p126
sI389
S''
sI380
S'        self.menu = []             # used by the default view layout'
p127
sI381
S'        self.files = []            # used by web2py_ajax.html'
p128
sI382
S'        self.generic_patterns = []  # patterns to allow generic views'
p129
sI383
S"        self.delimiters = ('{{', '}}')"
p130
ssg100
S'(f=<function sentmails>)'
p131
sg102
S'<lambda>'
p132
sa(dp133
g79
S'/home/hitesh96db/Documents/web2py/applications/ITWSII_StudentsMail/controllers/main.py'
p134
sg81
(dp135
S'db.sentmail.sender_email'
p136
S'<gluon.dal.Field object>'
p137
sS'rows'
p138
g119
sS').select'
p139
g119
sS'db.sentmail'
p140
S'<Table sentmail (id,receivers,sender_email,sende...me,subject,mail_message,tag,sent_date,sent_time)>'
p141
sS'global db'
p142
S'<DAL uri="sqlite://storage.sqlite">'
p143
sS'email'
p144
S"'hitesh.sharma'"
p145
ssg87
I166
sg88
(dp146
I161
S'\treturn json.dumps(mails)'
p147
sI162
S''
sI163
S'def sentmails():'
p148
sI164
S'\timport json'
p149
sI165
S'\temail = request.vars["email"]'
p150
sI166
S'\trows = db(db.sentmail.sender_email == email).select()'
p151
sI167
S'\trows = rows.as_list()'
p152
sI168
S''
sI169
S'\treturn str(rows)'
p153
sI170
S'#        k = [ x for x in range(1,len(rows)+1) ]'
p154
ssg100
S'()'
p155
sg102
S'sentmails'
p156
sa(dp157
g79
S'/home/hitesh96db/Documents/web2py/gluon/dal.py'
p158
sg81
(dp159
S'self.query'
p160
S"<Query (sentmail.sender_email = 'hitesh.sharma')>"
p161
sS'adapter.select'
p162
S'<bound method SQLiteAdapter.select of <gluon.dal.SQLiteAdapter object>>'
p163
sS'fields'
p164
S'[<gluon.dal.Field object>, <gluon.dal.Field object>, <gluon.dal.Field object>, <gluon.dal.Field object>, <gluon.dal.Field object>, <gluon.dal.Field object>, <gluon.dal.Field object>, <gluon.dal.Field object>, <gluon.dal.Field object>]'
p165
sS'adapter'
p166
S'<gluon.dal.SQLiteAdapter object>'
p167
sS'attributes'
p168
S'{}'
p169
sS'self'
p170
S"<Set (sentmail.sender_email = 'hitesh.sharma')>"
p171
ssg87
I10525
sg88
(dp172
I10528
S'        return Expression(self.db,self._select(*fields,**attributes))'
p173
sI10529
S''
sI10520
S"                                    attributes.get('join',None),"
p174
sI10521
S"                                    attributes.get('left',None),"
p175
sI10522
S"                                    attributes.get('orderby',None),"
p176
sI10523
S"                                    attributes.get('groupby',None))"
p177
sI10524
S'        fields = adapter.expand_all(fields, tablenames)'
p178
sI10525
S'        return adapter.select(self.query,fields,attributes)'
p179
sI10526
S''
sI10527
S'    def nested_select(self,*fields,**attributes):'
p180
ssg100
S"(self=<Set (sentmail.sender_email = 'hitesh.sharma')>, *fields=[<gluon.dal.Field object>, <gluon.dal.Field object>, <gluon.dal.Field object>, <gluon.dal.Field object>, <gluon.dal.Field object>, <gluon.dal.Field object>, <gluon.dal.Field object>, <gluon.dal.Field object>, <gluon.dal.Field object>], **attributes={})"
p181
sg102
S'select'
p182
sa(dp183
g79
S'/home/hitesh96db/Documents/web2py/gluon/dal.py'
p184
sg81
(dp185
S'fields'
p186
S'[<gluon.dal.Field object>, <gluon.dal.Field object>, <gluon.dal.Field object>, <gluon.dal.Field object>, <gluon.dal.Field object>, <gluon.dal.Field object>, <gluon.dal.Field object>, <gluon.dal.Field object>, <gluon.dal.Field object>]'
p187
sS'self'
p188
S'<gluon.dal.SQLiteAdapter object>'
p189
sS').select'
p190
S'<bound method SQLiteAdapter.select of <gluon.dal.SQLiteAdapter object>>'
p191
sS'attributes'
p192
g169
sS'global SQLiteAdapter'
p193
S"<class 'gluon.dal.SQLiteAdapter'>"
p194
sS'query'
p195
S"<Query (sentmail.sender_email = 'hitesh.sharma')>"
p196
sS'builtinsuper'
p197
S"<type 'super'>"
p198
ssg87
I2458
sg88
(dp199
I2453
S'        Note that the entire database, rather than one record, is locked'
p200
sI2454
S'        (it will be locked eventually anyway by the following UPDATE).'
p201
sI2455
S'        """'
p202
sI2456
S"        if attributes.get('for_update', False) and not 'cache' in attributes:"
p203
sI2457
S"            self.execute('BEGIN IMMEDIATE TRANSACTION;')"
p204
sI2458
S'        return super(SQLiteAdapter, self).select(query, fields, attributes)'
p205
sI2459
S''
sI2460
S'class SpatiaLiteAdapter(SQLiteAdapter):'
p206
sI2461
S"    drivers = ('sqlite3','sqlite2')"
p207
sI2462
S''
ssg100
S"(self=<gluon.dal.SQLiteAdapter object>, query=<Query (sentmail.sender_email = 'hitesh.sharma')>, fields=[<gluon.dal.Field object>, <gluon.dal.Field object>, <gluon.dal.Field object>, <gluon.dal.Field object>, <gluon.dal.Field object>, <gluon.dal.Field object>, <gluon.dal.Field object>, <gluon.dal.Field object>, <gluon.dal.Field object>], attributes={})"
p208
sg102
g182
sa(dp209
g79
S'/home/hitesh96db/Documents/web2py/gluon/dal.py'
p210
sg81
(dp211
S'fields'
p212
S'[<gluon.dal.Field object>, <gluon.dal.Field object>, <gluon.dal.Field object>, <gluon.dal.Field object>, <gluon.dal.Field object>, <gluon.dal.Field object>, <gluon.dal.Field object>, <gluon.dal.Field object>, <gluon.dal.Field object>]'
p213
sS'self'
p214
S'<gluon.dal.SQLiteAdapter object>'
p215
sS'attributes'
p216
g169
sS'self._select_aux'
p217
S'<bound method SQLiteAdapter._select_aux of <gluon.dal.SQLiteAdapter object>>'
p218
sS'sql'
p219
S'"SELECT  sentmail.id, sentmail.receivers, sentmai... WHERE (sentmail.sender_email = \'hitesh.sharma\');"'
p220
ssg87
I1882
sg88
(dp221
I1877
S'            return cache_model('
p222
sI1878
S'                key,'
p223
sI1879
S'                lambda self=self,args=args:self._select_aux(*args),'
p224
sI1880
S'                time_expire)'
p225
sI1881
S'        else:'
p226
sI1882
S'            return self._select_aux(sql,fields,attributes)'
p227
sI1883
S''
sI1884
S'    def _count(self, query, distinct=None):'
p228
sI1885
S'        tablenames = self.tables(query)'
p229
sI1886
S'        if query:'
p230
ssg100
S"(self=<gluon.dal.SQLiteAdapter object>, query=<Query (sentmail.sender_email = 'hitesh.sharma')>, fields=[<gluon.dal.Field object>, <gluon.dal.Field object>, <gluon.dal.Field object>, <gluon.dal.Field object>, <gluon.dal.Field object>, <gluon.dal.Field object>, <gluon.dal.Field object>, <gluon.dal.Field object>, <gluon.dal.Field object>], attributes={})"
p231
sg102
g182
sa(dp232
g79
S'/home/hitesh96db/Documents/web2py/gluon/dal.py'
p233
sg81
(dp234
S'rows'
p235
S'[(1, u"{\'0\': \'hitesh.sharma\'}", u\'hitesh.sharma\', u\'Hitesh Sharma\', u\'sada\', u\'sadjkasda\', u\'Academics\', u\'09-04-2014\', u\'01:59:14\'), (2, u"{\'0\': \'hitesh.sharma\'}", u\'hitesh.sharma\', u\'Hitesh Sharma\', u\'sadasd\', u\'asdsad\', u\'Academics\', u\'09-04-2014\', u\'01:59:49\'), (3, u\'{"0": "hitesh.sharma"}\', u\'hitesh.sharma\', u\'Hitesh Sharma\', u\'asdsad\', u\'asdasd\', u\'Academics\', u\'09-04-2014\', u\'02:00:48\'), (4, u\'{"0": "goutam.nair"}\', u\'hitesh.sharma\', u\'Hitesh Sharma\', u\'asdsad\', u\'sadsad\', u\'Academics\', u\'09-04-2014\', u\'02:01:25\')]'
p236
sS'fields'
p237
S'[<gluon.dal.Field object>, <gluon.dal.Field object>, <gluon.dal.Field object>, <gluon.dal.Field object>, <gluon.dal.Field object>, <gluon.dal.Field object>, <gluon.dal.Field object>, <gluon.dal.Field object>, <gluon.dal.Field object>]'
p238
sS'self'
p239
S'<gluon.dal.SQLiteAdapter object>'
p240
sS'cacheable'
p241
S'False'
p242
sS'self._colnames'
p243
S"['sentmail.id', 'sentmail.receivers', 'sentmail.sender_email', 'sentmail.sender_name', 'sentmail.subject', 'sentmail.mail_message', 'sentmail.tag', 'sentmail.sent_date', 'sentmail.sent_time']"
p244
sS'processor'
p245
S'<bound method SQLiteAdapter.parse of <gluon.dal.SQLiteAdapter object>>'
p246
ssg87
I1863
sg88
(dp247
I1858
S'            rows = list(rows)'
p248
sI1859
S"        limitby = args_get('limitby', None) or (0,)"
p249
sI1860
S'        rows = self.rowslice(rows,limitby[0],None)'
p250
sI1861
S"        processor = args_get('processor',self.parse)"
p251
sI1862
S"        cacheable = args_get('cacheable',False)"
p252
sI1863
S'        return processor(rows,fields,self._colnames,cacheable=cacheable)'
p253
sI1864
S''
sI1865
S'    def select(self, query, fields, attributes):'
p254
sI1866
S'        """'
p255
sI1867
S'        Always returns a Rows object, possibly empty.'
p256
ssg100
S'(self=<gluon.dal.SQLiteAdapter object>, sql="SELECT  sentmail.id, sentmail.receivers, sentmai... WHERE (sentmail.sender_email = \'hitesh.sharma\');", fields=[<gluon.dal.Field object>, <gluon.dal.Field object>, <gluon.dal.Field object>, <gluon.dal.Field object>, <gluon.dal.Field object>, <gluon.dal.Field object>, <gluon.dal.Field object>, <gluon.dal.Field object>, <gluon.dal.Field object>], attributes={})'
p257
sg102
S'_select_aux'
p258
sa(dp259
g79
S'/home/hitesh96db/Documents/web2py/gluon/dal.py'
p260
sg81
(dp261
S'blob_decode'
p262
S'True'
p263
sS'self'
p264
S'<gluon.dal.SQLiteAdapter object>'
p265
sS'ft'
p266
S"'json'"
p267
sS'value'
p268
S'u"{\'0\': \'hitesh.sharma\'}"'
p269
sS'self.parse_value'
p270
S'<bound method SQLiteAdapter.parse_value of <gluon.dal.SQLiteAdapter object>>'
p271
ssg87
I2248
sg88
(dp272
I2243
S'                    colset = new_row.get(tablename, None)'
p273
sI2244
S'                    if colset is None:'
p274
sI2245
S'                        colset = new_row[tablename] = Row()'
p275
sI2246
S'                        if tablename not in virtualtables:'
p276
sI2247
S'                            virtualtables.append(tablename)'
p277
sI2248
S'                    value = self.parse_value(value,ft,blob_decode)'
p278
sI2249
S'                    if field.filter_out:'
p279
sI2250
S'                        value = field.filter_out(value)'
p280
sI2251
S'                    colset[fieldname] = value'
p281
sI2252
S''
ssg100
S'(self=<gluon.dal.SQLiteAdapter object>, rows=[(1, u"{\'0\': \'hitesh.sharma\'}", u\'hitesh.sharma\', u\'Hitesh Sharma\', u\'sada\', u\'sadjkasda\', u\'Academics\', u\'09-04-2014\', u\'01:59:14\'), (2, u"{\'0\': \'hitesh.sharma\'}", u\'hitesh.sharma\', u\'Hitesh Sharma\', u\'sadasd\', u\'asdsad\', u\'Academics\', u\'09-04-2014\', u\'01:59:49\'), (3, u\'{"0": "hitesh.sharma"}\', u\'hitesh.sharma\', u\'Hitesh Sharma\', u\'asdsad\', u\'asdasd\', u\'Academics\', u\'09-04-2014\', u\'02:00:48\'), (4, u\'{"0": "goutam.nair"}\', u\'hitesh.sharma\', u\'Hitesh Sharma\', u\'asdsad\', u\'sadsad\', u\'Academics\', u\'09-04-2014\', u\'02:01:25\')], fields=[<gluon.dal.Field object>, <gluon.dal.Field object>, <gluon.dal.Field object>, <gluon.dal.Field object>, <gluon.dal.Field object>, <gluon.dal.Field object>, <gluon.dal.Field object>, <gluon.dal.Field object>, <gluon.dal.Field object>], colnames=[\'sentmail.id\', \'sentmail.receivers\', \'sentmail.sender_email\', \'sentmail.sender_name\', \'sentmail.subject\', \'sentmail.mail_message\', \'sentmail.tag\', \'sentmail.sent_date\', \'sentmail.sent_time\'], blob_decode=True, cacheable=False)'
p282
sg102
S'parse'
p283
sa(dp284
g79
S'/home/hitesh96db/Documents/web2py/gluon/dal.py'
p285
sg81
(dp286
S'field_type'
p287
S"'json'"
p288
sS'self'
p289
S'<gluon.dal.SQLiteAdapter object>'
p290
sS'self.parsemap'
p291
S"{'bigint': <bound method SQLiteAdapter.parse_integer of <gluon.dal.SQLiteAdapter object>>, 'blob': <bound method SQLiteAdapter.parse_blob of <gluon.dal.SQLiteAdapter object>>, 'boolean': <bound method SQLiteAdapter.parse_boolean of <gluon.dal.SQLiteAdapter object>>, 'date': <bound method SQLiteAdapter.parse_date of <gluon.dal.SQLiteAdapter object>>, 'datetime': <bound method SQLiteAdapter.parse_datetime of <gluon.dal.SQLiteAdapter object>>, 'decimal': <bound method SQLiteAdapter.parse_decimal of <gluon.dal.SQLiteAdapter object>>, 'double': <bound method SQLiteAdapter.parse_double of <gluon.dal.SQLiteAdapter object>>, 'float': <bound method SQLiteAdapter.parse_double of <gluon.dal.SQLiteAdapter object>>, 'id': <bound method SQLiteAdapter.parse_id of <gluon.dal.SQLiteAdapter object>>, 'integer': <bound method SQLiteAdapter.parse_integer of <gluon.dal.SQLiteAdapter object>>, ...}"
p292
sS'value'
p293
S'"{\'0\': \'hitesh.sharma\'}"'
p294
sS'key'
p295
S"'json'"
p296
ssg87
I2097
sg88
(dp297
I2092
S'            return value'
p298
sI2093
S"        elif field_type == 'blob' and not blob_decode:"
p299
sI2094
S'            return value'
p300
sI2095
S'        else:'
p301
sI2096
S'            key = REGEX_TYPE.match(field_type).group(0)'
p302
sI2097
S'            return self.parsemap[key](value,field_type)'
p303
sI2098
S''
sI2099
S'    def parse_reference(self, value, field_type):'
p304
sI2100
S'        referee = field_type[10:].strip()'
p305
sI2101
S"        if not '.' in referee:"
p306
ssg100
S'(self=<gluon.dal.SQLiteAdapter object>, value="{\'0\': \'hitesh.sharma\'}", field_type=\'json\', blob_decode=True)'
p307
sg102
S'parse_value'
p308
sa(dp309
g79
S'/home/hitesh96db/Documents/web2py/gluon/dal.py'
p310
sg81
(dp311
S'global serializers'
p312
S"<module 'gluon.serializers' from '/home/hitesh96db/Documents/web2py/gluon/serializers.pyc'>"
p313
sS'serializers.loads_json'
p314
S'<function loads_json>'
p315
sS'value'
p316
S'"{\'0\': \'hitesh.sharma\'}"'
p317
ssg87
I2193
sg88
(dp318
I2188
S'            if not isinstance(value, basestring):'
p319
sI2189
S"                raise RuntimeError('json data not a string')"
p320
sI2190
S'            if isinstance(value, unicode):'
p321
sI2191
S"                value = value.encode('utf-8')"
p322
sI2192
S'            if have_serializers:'
p323
sI2193
S'                value = serializers.loads_json(value)'
p324
sI2194
S'            elif simplejson:'
p325
sI2195
S'                value = simplejson.loads(value)'
p326
sI2196
S'            else:'
p327
sI2197
S'                raise RuntimeError("missing simplejson")'
p328
ssg100
S'(self=<gluon.dal.SQLiteAdapter object>, value="{\'0\': \'hitesh.sharma\'}", field_type=\'json\')'
p329
sg102
S'parse_json'
p330
sa(dp331
g79
S'/home/hitesh96db/Documents/web2py/gluon/serializers.py'
p332
sg81
(dp333
S'json_parser.loads'
p334
S'<function loads>'
p335
sS'global json_parser'
p336
S"<module 'simplejson' from '/usr/lib/python2.7/dist-packages/simplejson/__init__.pyc'>"
p337
sS'result'
p338
g119
sS'o'
S'"{\'0\': \'hitesh.sharma\'}"'
p339
sS'kwargs'
p340
g169
ssg87
I70
sg88
(dp341
I65
S'        newobj = o'
p342
sI66
S'    return newobj'
p343
sI67
S''
sI68
S'def loads_json(o, unicode_keys=True, **kwargs):'
p344
sI69
S'    # deserialize a json string'
p345
sI70
S'    result = json_parser.loads(o, **kwargs)'
p346
sI71
S'    if not unicode_keys:'
p347
sI72
S'        # filter non-str keys in dictionary objects'
p348
sI73
S'        result = cast_keys(result,'
p349
sI74
S'                           encoding=kwargs.get("encoding", "utf-8"))'
p350
ssg100
S'(o="{\'0\': \'hitesh.sharma\'}", unicode_keys=True, **kwargs={})'
p351
sg102
S'loads_json'
p352
sa(dp353
g79
S'/usr/lib/python2.7/dist-packages/simplejson/__init__.py'
p354
sg81
(dp355
S's'
S'"{\'0\': \'hitesh.sharma\'}"'
p356
sS'global _default_decoder'
p357
S'<simplejson.decoder.JSONDecoder object>'
p358
sS'_default_decoder.decode'
p359
S'<bound method JSONDecoder.decode of <simplejson.decoder.JSONDecoder object>>'
p360
ssg87
I413
sg88
(dp361
I416
S'    if object_hook is not None:'
p362
sI417
S"        kw['object_hook'] = object_hook"
p363
sI408
S'    """'
p364
sI409
S'    if (cls is None and encoding is None and object_hook is None and'
p365
sI410
S'            parse_int is None and parse_float is None and'
p366
sI411
S'            parse_constant is None and object_pairs_hook is None'
p367
sI412
S'            and not use_decimal and not kw):'
p368
sI413
S'        return _default_decoder.decode(s)'
p369
sI414
S'    if cls is None:'
p370
sI415
S'        cls = JSONDecoder'
p371
ssg100
S'(s="{\'0\': \'hitesh.sharma\'}", encoding=None, cls=None, object_hook=None, parse_float=None, parse_int=None, parse_constant=None, object_pairs_hook=None, use_decimal=False, **kw={})'
p372
sg102
S'loads'
p373
sa(dp374
g79
S'/usr/lib/python2.7/dist-packages/simplejson/decoder.py'
p375
sg81
(dp376
S').end'
p377
g119
sS'end'
p378
g119
sS'idx'
p379
g119
sS'_w'
p380
S'<built-in method match of _sre.SRE_Pattern object>'
p381
sS'self'
p382
S'<simplejson.decoder.JSONDecoder object>'
p383
sS's'
S'"{\'0\': \'hitesh.sharma\'}"'
p384
sS'self.raw_decode'
p385
S'<bound method JSONDecoder.raw_decode of <simplejson.decoder.JSONDecoder object>>'
p386
sS'obj'
p387
g119
ssg87
I402
sg88
(dp388
I397
S'    def decode(self, s, _w=WHITESPACE.match):'
p389
sI398
S'        """Return the Python representation of ``s`` (a ``str`` or ``unicode``'
p390
sI399
S'        instance containing a JSON document)'
p391
sI400
S''
sI401
S'        """'
p392
sI402
S'        obj, end = self.raw_decode(s, idx=_w(s, 0).end())'
p393
sI403
S'        end = _w(s, end).end()'
p394
sI404
S'        if end != len(s):'
p395
sI405
S'            raise JSONDecodeError("Extra data", s, end, len(s))'
p396
sI406
S'        return obj'
p397
ssg100
S'(self=<simplejson.decoder.JSONDecoder object>, s="{\'0\': \'hitesh.sharma\'}", _w=<built-in method match of _sre.SRE_Pattern object>)'
p398
sg102
S'decode'
p399
sa(dp400
g79
S'/usr/lib/python2.7/dist-packages/simplejson/decoder.py'
p401
sg81
(dp402
S'end'
p403
g119
sS'idx'
p404
S'0'
sS'self'
p405
S'<simplejson.decoder.JSONDecoder object>'
p406
sS's'
S'"{\'0\': \'hitesh.sharma\'}"'
p407
sS'obj'
p408
g119
sS'self.scan_once'
p409
S'<simplejson._speedups.Scanner object>'
p410
ssg87
I418
sg88
(dp411
I416
S'        """'
p412
sI417
S'        try:'
p413
sI418
S'            obj, end = self.scan_once(s, idx)'
p414
sI419
S'        except StopIteration:'
p415
sI420
S'            raise JSONDecodeError("No JSON object could be decoded", s, idx)'
p416
sI421
S'        return obj, end'
p417
sI412
S''
sI413
S'        This can be used to decode a JSON document from a string that may'
p418
sI414
S'        have extraneous data at the end.'
p419
sI415
S''
ssg100
S'(self=<simplejson.decoder.JSONDecoder object>, s="{\'0\': \'hitesh.sharma\'}", idx=0)'
p420
sg102
S'raw_decode'
p421
sasS'pyver'
p422
S'Python 2.7.3: /usr/bin/python (prefix: /usr)'
p423
sS'session'
p424
g74
(S's/\x01\x00\x00<div><table><tr><td style="font-weight:bold;vertical-align:top;">email</td><td style="vertical-align:top;">:</td><td><div>hitesh.sharma</div></td></tr><tr><td style="font-weight:bold;vertical-align:top;">name</td><td style="vertical-align:top;">:</td><td><div>Hitesh Sharma</div></td></tr></table></div>'
tRp425
sS'etype'
p426
S"<class 'simplejson.decoder.JSONDecodeError'>"
p427
sS'date'
p428
S'Wed Apr  9 02:05:24 2014'
p429
sS'response'
p430
g74
(S's.\x17\x00\x00<div><table><tr><td style="font-weight:bold;vertical-align:top;">body</td><td style="vertical-align:top;">:</td><td><div>&lt;cStringIO.StringO object at 0x7f7b14374880&gt;</div></td></tr><tr><td style="font-weight:bold;vertical-align:top;">cookies</td><td style="vertical-align:top;">:</td><td><div><table><tr><td style="font-weight:bold;vertical-align:top;">session_id_itwsii_studentsmail</td><td style="vertical-align:top;">:</td><td><div>127.0.0.1-6b6bad34-a869-4dc9-8ca2-640797bb64b7<table><tr><td style="font-weight:bold;vertical-align:top;">comment</td><td style="vertical-align:top;">:</td><td><div></div></td></tr><tr><td style="font-weight:bold;vertical-align:top;">domain</td><td style="vertical-align:top;">:</td><td><div></div></td></tr><tr><td style="font-weight:bold;vertical-align:top;">expires</td><td style="vertical-align:top;">:</td><td><div></div></td></tr><tr><td style="font-weight:bold;vertical-align:top;">httponly</td><td style="vertical-align:top;">:</td><td><div></div></td></tr><tr><td style="font-weight:bold;vertical-align:top;">max-age</td><td style="vertical-align:top;">:</td><td><div></div></td></tr><tr><td style="font-weight:bold;vertical-align:top;">path</td><td style="vertical-align:top;">:</td><td><div>/</div></td></tr><tr><td style="font-weight:bold;vertical-align:top;">secure</td><td style="vertical-align:top;">:</td><td><div></div></td></tr><tr><td style="font-weight:bold;vertical-align:top;">version</td><td style="vertical-align:top;">:</td><td><div></div></td></tr></table></div></td></tr></table></div></td></tr><tr><td style="font-weight:bold;vertical-align:top;">delimiters</td><td style="vertical-align:top;">:</td><td><div><table><tr><td><div>{{</div></td></tr><tr><td><div>}}</div></td></tr></table></div></td></tr><tr><td style="font-weight:bold;vertical-align:top;">files</td><td style="vertical-align:top;">:</td><td><div><table></table></div></td></tr><tr><td style="font-weight:bold;vertical-align:top;">flash</td><td style="vertical-align:top;">:</td><td><div></div></td></tr><tr><td style="font-weight:bold;vertical-align:top;">generic_patterns</td><td style="vertical-align:top;">:</td><td><div><table><tr><td><div>*</div></td></tr></table></div></td></tr><tr><td style="font-weight:bold;vertical-align:top;">headers</td><td style="vertical-align:top;">:</td><td><div><table><tr><td style="font-weight:bold;vertical-align:top;">X-Powered-By</td><td style="vertical-align:top;">:</td><td><div>web2py</div></td></tr></table></div></td></tr><tr><td style="font-weight:bold;vertical-align:top;">menu</td><td style="vertical-align:top;">:</td><td><div><table></table></div></td></tr><tr><td style="font-weight:bold;vertical-align:top;">meta</td><td style="vertical-align:top;">:</td><td><div><table></table></div></td></tr><tr><td style="font-weight:bold;vertical-align:top;">models_to_run</td><td style="vertical-align:top;">:</td><td><div><table><tr><td><div>^\\w+\\.py$</div></td></tr><tr><td><div>^main/\\w+\\.py$</div></td></tr><tr><td><div>^main/sentmails/\\w+\\.py$</div></td></tr></table></div></td></tr><tr><td style="font-weight:bold;vertical-align:top;">postprocessing</td><td style="vertical-align:top;">:</td><td><div><table></table></div></td></tr><tr><td style="font-weight:bold;vertical-align:top;">session_client</td><td style="vertical-align:top;">:</td><td><div>127.0.0.1</div></td></tr><tr><td style="font-weight:bold;vertical-align:top;">session_cookie_compression_level</td><td style="vertical-align:top;">:</td><td><div>None</div></td></tr><tr><td style="font-weight:bold;vertical-align:top;">session_cookie_expires</td><td style="vertical-align:top;">:</td><td><div>None</div></td></tr><tr><td style="font-weight:bold;vertical-align:top;">session_cookie_key</td><td style="vertical-align:top;">:</td><td><div>None</div></td></tr><tr><td style="font-weight:bold;vertical-align:top;">session_data_name</td><td style="vertical-align:top;">:</td><td><div>session_data_itwsii_studentsmail</div></td></tr><tr><td style="font-weight:bold;vertical-align:top;">session_file</td><td style="vertical-align:top;">:</td><td><div>&lt;open file &#x27;/home/hitesh96db/Documents/web2py/applications/ITWSII_StudentsMail/sessions/127.0.0.1-6b6bad34-a869-4dc9-8ca2-640797bb64b7&#x27;, mode &#x27;rb+&#x27; at 0x7f7b205280c0&gt;</div></td></tr><tr><td style="font-weight:bold;vertical-align:top;">session_filename</td><td style="vertical-align:top;">:</td><td><div>/home/hitesh96db/Documents/web2py/applications/ITWSII_StudentsMail/sessions/127.0.0.1-6b6bad34-a869-4dc9-8ca2-640797bb64b7</div></td></tr><tr><td style="font-weight:bold;vertical-align:top;">session_hash</td><td style="vertical-align:top;">:</td><td><div>4a78207c7aa663b91bd14b7a1220a503</div></td></tr><tr><td style="font-weight:bold;vertical-align:top;">session_id</td><td style="vertical-align:top;">:</td><td><div>127.0.0.1-6b6bad34-a869-4dc9-8ca2-640797bb64b7</div></td></tr><tr><td style="font-weight:bold;vertical-align:top;">session_id_name</td><td style="vertical-align:top;">:</td><td><div>session_id_itwsii_studentsmail</div></td></tr><tr><td style="font-weight:bold;vertical-align:top;">session_locked</td><td style="vertical-align:top;">:</td><td><div>True</div></td></tr><tr><td style="font-weight:bold;vertical-align:top;">session_masterapp</td><td style="vertical-align:top;">:</td><td><div>ITWSII_StudentsMail</div></td></tr><tr><td style="font-weight:bold;vertical-align:top;">session_new</td><td style="vertical-align:top;">:</td><td><div>False</div></td></tr><tr><td style="font-weight:bold;vertical-align:top;">session_storage_type</td><td style="vertical-align:top;">:</td><td><div>file</div></td></tr><tr><td style="font-weight:bold;vertical-align:top;">status</td><td style="vertical-align:top;">:</td><td><div>200</div></td></tr><tr><td style="font-weight:bold;vertical-align:top;">view</td><td style="vertical-align:top;">:</td><td><div>main/sentmails.html</div></td></tr></table></div>'
tRp431
sS'locals'
p432
(dp433
S's'
S'"{\'0\': \'hitesh.sharma\'}"'
p434
sS'self'
p435
S'<simplejson.decoder.JSONDecoder object>'
p436
sS'idx'
p437
S'0'
sssS'traceback'
p438
S'Traceback (most recent call last):\n  File "/home/hitesh96db/Documents/web2py/gluon/restricted.py", line 220, in restricted\n    exec ccode in environment\n  File "/home/hitesh96db/Documents/web2py/applications/ITWSII_StudentsMail/controllers/main.py", line 242, in <module>\n  File "/home/hitesh96db/Documents/web2py/gluon/globals.py", line 385, in <lambda>\n    self._caller = lambda f: f()\n  File "/home/hitesh96db/Documents/web2py/applications/ITWSII_StudentsMail/controllers/main.py", line 166, in sentmails\n    rows = db(db.sentmail.sender_email == email).select()\n  File "/home/hitesh96db/Documents/web2py/gluon/dal.py", line 10525, in select\n    return adapter.select(self.query,fields,attributes)\n  File "/home/hitesh96db/Documents/web2py/gluon/dal.py", line 2458, in select\n    return super(SQLiteAdapter, self).select(query, fields, attributes)\n  File "/home/hitesh96db/Documents/web2py/gluon/dal.py", line 1882, in select\n    return self._select_aux(sql,fields,attributes)\n  File "/home/hitesh96db/Documents/web2py/gluon/dal.py", line 1863, in _select_aux\n    return processor(rows,fields,self._colnames,cacheable=cacheable)\n  File "/home/hitesh96db/Documents/web2py/gluon/dal.py", line 2248, in parse\n    value = self.parse_value(value,ft,blob_decode)\n  File "/home/hitesh96db/Documents/web2py/gluon/dal.py", line 2097, in parse_value\n    return self.parsemap[key](value,field_type)\n  File "/home/hitesh96db/Documents/web2py/gluon/dal.py", line 2193, in parse_json\n    value = serializers.loads_json(value)\n  File "/home/hitesh96db/Documents/web2py/gluon/serializers.py", line 70, in loads_json\n    result = json_parser.loads(o, **kwargs)\n  File "/usr/lib/python2.7/dist-packages/simplejson/__init__.py", line 413, in loads\n    return _default_decoder.decode(s)\n  File "/usr/lib/python2.7/dist-packages/simplejson/decoder.py", line 402, in decode\n    obj, end = self.raw_decode(s, idx=_w(s, 0).end())\n  File "/usr/lib/python2.7/dist-packages/simplejson/decoder.py", line 418, in raw_decode\n    obj, end = self.scan_once(s, idx)\nJSONDecodeError: Expecting property name: line 1 column 1 (char 1)\n'
p439
s.