(dp1
S'output'
p2
S"<type 'exceptions.NameError'> name 'form' is not defined"
p3
sS'layer'
p4
S'/home/hitesh96db/Documents/web2py/applications/ITWSII_StudentsMail/views/main/mails.html'
p5
sS'code'
p6
S'response.write(\'<html>\\n<head>\\n\\t<title>Students Mail</title>\\n        <link rel="icon" href="../static/images/mail.png"/>\\n\\t<script src="\', escape=False)\nresponse.write(URL(\'static\',\'js/jquery.js\'))\nresponse.write(\'"></script>\\n\\t <script src="\', escape=False)\nresponse.write(URL(\'static\',\'js/jquery.easydropdown.min.js\'))\nresponse.write(\'"></script>\\n\\t<link href="\', escape=False)\nresponse.write(URL(\'static\',\'css/easydropdown.metro.css\'))\nresponse.write(\'" rel="stylesheet" type="text/css"></link>\\n\\t<link href="\', escape=False)\nresponse.write(URL(\'static\',\'css/mails.css\'))\nresponse.write(\'" rel="stylesheet" type="text/css"></link>\\n\\n\\t<style>\\n\\t\\tfieldset{\\n\\t\\t\\tdisplay:block;\\n\\t\\t\\tborder:0px;\\n\\t\\t}\\n\\t\\t.w2p_fw{\\n\\t\\t\\tcolor : black;\\n\\t\\t\\tposition : absolute;\\n\\t\\t\\ttop : 30% !important;\\n\\t\\t\\tleft : 30% !important;\\n\\t\\t}\\n\\t\\t#attachments_attachment__label{\\n\\t\\t\\tvisibility:hidden !important;\\n\\t\\t}\\n\\t\\t#submit_record__row{\\n\\t\\t\\tposition:absolute;\\n\\t\\t\\ttop:36%;\\n\\t\\t\\tleft:31%;\\n\\t\\t}\\n\\t</style>\\n</head>\\n<body onload="getuser()">\\n\\t<div id="main">\\n\\t\\t<div id="header">\\n\\t\\t\\t<p id="title">Students Mail</p>\\n\\t\\t\\t<div id="mail"><img id="mailimg" src="\', escape=False)\nresponse.write(URL(\'static\',\'images/mail.png\'))\nresponse.write(\'" width="80px" height="80px"></img></div>\\n\\t\\t\\t<span id="user">Hitesh Sharma</span>\\n\\t\\t\\t<div id="tg"></div>\\n\\t\\t\\t<p id="logout" onclick="logout()"> Logout </p>\\n\\t\\t\\t<p id="idofuser" style="display:none;">hitesh.sharma</p>\\n\\t\\t</div>\\n\\t\\t<ul id="tabs">\\n\\t\\t\\t    <li class="activemy" id="tag_Academics" onclick="openinbox(this)" name="Academics"><a class="top" href="#1">Academics</a><div id="c1"><p class="content"></p></div></li>\\n                        <li class="tags" id="tag_Sports" onclick="openinbox(this)" name="Sports"><a class="top" href="#2">Sports</a><div id="c2"><p class="content"></p></div></li>\\n                        <li class="tags" id="tag_Events" onclick="openinbox(this)" name="Events"><a class="top" href="#3">Events</a><div id="c3"><p class="content"></p></div></li>\\n                        <li class="tags" id="tag_Cultural" onclick="openinbox(this)" name="Cultural"><a class="top" href="#4">Cultural</a><div id="c4"><p class="content"></p></div></li>\\n                        <li class="tags" id="tag_Urgent" onclick="openinbox(this)" name="Urgent"><a class="top" href="#5">Urgent</a><div id="c5"><p class="content"></p></div></li>\\n                        <li class="tags" id="tag_LostFound" onclick="openinbox(this)" name="LostFound"><a class="top" href="#6">Lost/Found</a><div id="c6"><p class="content"></p></div></li>\\n                        <li class="tags" id="tag_General" onclick="openinbox(this)" name="General"><a class="top" href="#7">General</a><div id="c7"><p class="content"></p></div></li>\\n\\t\\t</ul>\\n\\t\\t<div id="layer">\\n                        </div>\\n                        <div id="message">\\n                                <p>Mail Sent</p>\\n                        </div>\\n\\n\\t\\t<div id="submain">\\n\\t\\t\\t<div id="toolbar">\\n\\t\\t\\t\\t<div id="mailicons">\\n                                <img src="\', escape=False)\nresponse.write(URL(\'static\',\'images/reply.png\'))\nresponse.write(\'" width="30px" height="30px" style="position:absolute;margin-left:13px;margin-top:4px;" title="reply"></img>\\n                                <img src="\', escape=False)\nresponse.write(URL(\'static\',\'images/forward.png\'))\nresponse.write(\'" width="30px" height="30px" style="position:absolute;margin-left:68px;margin-top:4px;" title="forward"></img>\\n                                <img src="\', escape=False)\nresponse.write(URL(\'static\',\'images/delete.png\'))\nresponse.write(\'" width="30px" height="30px" style="position:absolute;margin-left:121px;margin-top:4px;" title="delete"></img>\\n                                <img src="\', escape=False)\nresponse.write(URL(\'static\',\'images/read.png\'))\nresponse.write(\'" width="30px" height="30px" style="position:absolute;margin-left:172px;margin-top:4px;" title="Mark as read"></img>\\n                                <img src="\', escape=False)\nresponse.write(URL(\'static\',\'images/unread.png\'))\nresponse.write(\'" width="30px" height="30px" style="position:absolute;margin-left:222px;margin-top:4px;" title="Mark as unread"></img>\\n                                <img src="\', escape=False)\nresponse.write(URL(\'static\',\'images/important.png\'))\nresponse.write(\'" width="30px" height="30px" style="position:absolute;margin-left:272px;margin-top:4px;" title="Mark as important"></img>\\n                                </div>\\n\\t\\t\\t\\t<div id="magnifying-glass"></div>\\n\\t\\t\\t\\t<input id="search"></input>\\n\\t\\t\\t</div>\\n\\t\\t\\t<div id="sidebar">\\n\\t\\t\\t\\t<ul id="side">\\n\\t\\t\\t\\t\\t<img id="compose" src="\', escape=False)\nresponse.write(URL(\'static\',\'images/compose.png\'))\nresponse.write(\'" width="30px" height="30px"></img>\\n\\t\\t\\t\\t\\t<li id="composeme" class="down" onclick="makesideactive(this)"><a>Compose</a></li>\\n\\t\\t\\t\\t\\t<img id="inbox" src="\', escape=False)\nresponse.write(URL(\'static\',\'images/inbox.png\'))\nresponse.write(\'" width="30px" height="30px"></img>\\n\\t\\t\\t\\t\\t<li id="inboxme" class="sideactive" onclick="makesideactive(this)" ><a >Inbox</a></li>\\n\\t\\t\\t\\t\\t<img id="sent" src="\', escape=False)\nresponse.write(URL(\'static\',\'images/sent.png\'))\nresponse.write(\'" width="30px" height="30px"></img>\\n\\t\\t\\t\\t\\t<li id="sentme" class="down" onclick="makesideactive(this)" ><a >Sent</a></li>\\n\\t\\t\\t\\t\\t<img id="drafts" src="\', escape=False)\nresponse.write(URL(\'static\',\'images/drafts.png\'))\nresponse.write(\'" width="30px" height="30px"></img>\\n\\t\\t\\t\\t\\t<li id="draftsme" class="down" onclick="makesideactive(this)" ><a >Drafts</a></li>\\n\\t\\t\\t\\t\\t<img id="important" src="\', escape=False)\nresponse.write(URL(\'static\',\'images/important1.png\'))\nresponse.write(\'" width="30px" height="30px"></img>\\n\\t\\t\\t\\t\\t<li id="importantme" class="down" onclick="makesideactive(this)" ><a >Important</a></li>\\n\\t\\t\\t\\t\\t<img id="trash" src="\', escape=False)\nresponse.write(URL(\'static\',\'images/trash.png\'))\nresponse.write(\'" width="30px" height="30px"></img>\\n\\t\\t\\t\\t\\t<li id="trashme" class="down" onclick="makesideactive(this)" ><a >Trash</a></li>\\n\\t\\t\\t\\t</ul>\\n\\t\\t\\t</div>\\n\\t\\t\\t<img src="\', escape=False)\nresponse.write(URL(\'static\',\'images/delete.png\'))\nresponse.write(\'" onclick="deletethesemails()" width="30px" height="30px" title="Delete!" id="draftdelete"></img>\\n\\t\\t\\t<div id="allmails">\\n\\t\\t\\t\\t<div id="searchbox">\\n\\t\\t\\t\\t\\t<table class="table" id="table_search">\\n\\t\\t\\t\\t\\t<tr>\\n\\t\\t\\t\\t\\t<td class="one" id="i-1"></td>\\n\\t\\t\\t\\t\\t<td class="two" id="i-2">Subject</td>\\n\\t\\t\\t\\t\\t<td class="six" id="i-3">Tag</td>\\n\\t\\t\\t\\t\\t<td class="three" id="i-4">From</td>\\n\\t\\t\\t\\t\\t<td class="four" id="i-5">Date</td>\\n\\t\\t\\t\\t\\t<td class="five" id="i-6"><img src="../static/images/attmain.png" style="height=14px;width:20px;"/></td>\\n\\t\\t\\t\\t\\t</table>\\n\\t\\t\\t\\t</div>\\n\\t\\t\\t\\t<div id="inboxer">\\n\\t\\t\\t\\t\\t<div id="divAcademics">\\n\\t\\t\\t\\t\\t\\t<table class="table" id="bigtable_Academics">\\n\\t\\t\\t\\t\\t\\t<tr>\\n\\t\\t\\t\\t\\t\\t<td class="one" id="i1"></td>\\n\\t\\t\\t\\t\\t\\t<td class="two" id="i2">Subject</td>\\n\\t\\t\\t\\t\\t\\t<td class="three" id="i3">From</td>\\n\\t\\t\\t\\t\\t\\t<td class="four" id="i4">Date</td>\\n\\t\\t\\t\\t\\t\\t<td class="five" id="i5"><img src="../static/images/attmain.png" style="height=14px;width:20px;"/></td>\\n\\t\\t\\t\\t\\t\\t</tr>\\n\\t\\t\\t\\t\\t\\t</table>\\n\\t\\t\\t\\t\\t</div>\\n\\t\\n\\t\\t\\t\\t\\t<div id="divSports">\\n                                                <table class="table" id="bigtable_Sports">\\n                                                <tr>\\n                                                <td class="one" id="i1"></td>\\n                                                <td class="two" id="i2">Subject</td>\\n                                                <td class="three" id="i3">From</td>\\n                                                <td class="four" id="i4">Date</td>\\n                                                <td class="five" id="i5"><img src="../static/images/attmain.png" style="height=14px;width:20px;"/></td>\\n                                                </tr>\\n                                                </table>\\n                                        </div>\\n\\n\\t\\t\\t\\t\\t<div id="divEvents">\\n                                                <table class="table" id="bigtable_Events">\\n                                                <tr>\\n                                                <td class="one" id="i1"></td>\\n                                                <td class="two" id="i2">Subject</td>\\n                                                <td class="three" id="i3">From</td>\\n                                                <td class="four" id="i4">Date</td>\\n                                                <td class="five" id="i5"><img src="../static/images/attmain.png" style="height=14px;width:20px;"/></td>\\n                                                </tr>\\n                                                </table>\\n                                        </div>\\n\\n\\t\\t\\t\\t\\t<div id="divCultural">\\n                                                <table class="table" id="bigtable_Cultural">\\n                                                <tr>\\n                                                <td class="one" id="i1"></td>\\n                                                <td class="two" id="i2">Subject</td>\\n                                                <td class="three" id="i3">From</td>\\n                                                <td class="four" id="i4">Date</td>\\n                                                <td class="five" id="i5"><img src="../static/images/attmain.png" style="height=14px;width:20px;"/></td>\\n                                                </tr>\\n                                                </table>\\n                                        </div>\\n\\t\\t\\n\\t\\t\\t\\t\\t<div id="divUrgent">\\n                                                <table class="table" id="bigtable_Urgent">\\n                                                <tr>\\n                                                <td class="one" id="i1"></td>\\n                                                <td class="two" id="i2">Subject</td>\\n                                                <td class="three" id="i3">From</td>\\n                                                <td class="four" id="i4">Date</td>\\n                                                <td class="five" id="i5"><img src="../static/images/attmain.png" style="height=14px;width:20px;"/></td>\\n                                                </tr>\\n                                                </table>\\n                                        </div>\\n\\n\\t\\t\\t\\t\\t<div id="divLostFound">\\n                                                <table class="table" id="bigtable_LostFound">\\n                                                <tr>\\n                                                <td class="one" id="i1"></td>\\n                                                <td class="two" id="i2">Subject</td>\\n                                                <td class="three" id="i3">From</td>\\n                                                <td class="four" id="i4">Date</td>\\n                                                <td class="five" id="i5"><img src="../static/images/attmain.png" style="height=14px;width:20px;"/></td>\\n                                                </tr>\\n                                                </table>\\n                                        </div>\\n\\n\\t\\t\\t\\t\\t<div id="divGeneral">\\n                                                <table class="table" id="bigtable_General">\\n                                                <tr>\\n                                                <td class="one" id="i1"></td>\\n                                                <td class="two" id="i2">Subject</td>\\n                                                <td class="three" id="i3">From</td>\\n                                                <td class="four" id="i4">Date</td>\\n                                                <td class="five" id="i5"><img src="../static/images/attmain.png" style="height=14px;width:20px;"/></td>\\n                                                </tr>\\n                                                </table>\\n                                        </div>\\n\\n\\t\\t\\t\\t</div>\\n\\n\\t\\t\\t\\t<div id="composer">\\n\\t\\t\\t\\t\\t<img id="close" src="\', escape=False)\nresponse.write(URL(\'static\',\'images/close.png\'))\nresponse.write(\'" width="20px" height="20px"></img>\\n\\t\\t\\t\\t\\t<!--<div id="sender">\\n\\t\\t\\t\\t\\t\\t<input type="submit" value="Send" id="sender"/>\\n\\t\\t\\t\\t\\t</div>-->\\n\\t\\t\\t\\t\\t<form>\\t\\n\\t\\t\\t\\t\\t\\t<p id="recvrp" class="formhead">To</p>\\n\\t\\t\\t\\t\\t\\t<input id="recvrinput" type="name" name="recvr" onkeyup="auto(event,1)" onkeydown="sendtodiv(event,1)"></input>\\n\\t\\t\\t\\t\\t\\t<div id="suggestions">\\t\\n\\t\\t\\t\\t\\t\\t</div>\\n\\t\\t\\t\\t\\t\\t<div id="recvr">\\n\\t\\t\\t\\t\\t\\t<ul id="receivers">\\n\\t\\t\\t\\t\\t\\t\\t\\n\\t\\t\\t\\t\\t\\t</ul>\\n\\t\\t\\t\\t\\t\\t</div>\\n\\t\\t\\t\\t\\t\\t<p id="tagp" class="formhead" >Tag</p>\\n\\t\\t\\t\\t\\t\\t<select class="dropdown">\\n\\t\\t\\t\\t\\t\\t\\t<option value="1">Academics</option>\\n\\t\\t\\t\\t\\t\\t\\t<option value="2">Sports</option>\\n\\t\\t\\t\\t\\t\\t\\t<option value="3">Events</option>\\n\\t\\t\\t\\t\\t\\t\\t<option value="4">Cultural</option>\\n\\t\\t\\t\\t\\t\\t\\t<option value="5">Urgent</option>\\n\\t\\t\\t\\t\\t\\t\\t<option value="6">Lost/Found</option>\\n\\t\\t\\t\\t\\t\\t\\t<option value="7">General</option>\\n\\t\\t\\t\\t\\t\\t\\t<option value="8"></option>\\n\\t\\t\\t\\t\\t\\t</select>\\n\\t\\t\\t\\t\\t\\t<p id="subp" class="formhead" >Subject</p>\\n\\t\\t\\t\\t\\t\\t<input id="sub" type="name" name="sub"></input>\\n\\t\\t\\t\\t\\t\\t<p id="msgp" class="formhead">Message</p>\\n\\t\\t\\t\\t\\t\\t<textarea id="msg" name="msg" cols="82.5" rows="20" ></textarea>\\n\\t\\t\\t\\t\\t</form>\\n\\t\\t\\t\\t\\t\', escape=False)\nresponse.write(form)\nresponse.write(\'\\n\\t\\t\\t\\t\\t<img src="\', escape=False)\nresponse.write(URL(\'static\', \'images/paperclip.png\'))\nresponse.write(\'" width="37px" height="36px" style="position:absolute;top:29.5%;left:25%"></img>\\n\\t\\t\\t\\t</div>\\n\\t\\t\\t\\t<div id="draftser">\\n                                        <table class="table" id="drafttable">\\n                                        <tr>\\n                                                <td class="one" id="i1"></td>\\n                                                <td class="two" id="i2">Subject</td>\\n                                                <td class="three" id="i3">Receivers</td>\\n                                                <td class="four" id="i4">Date</td>\\n                                                <td class="five" id="i5"><img src="../static/images/attmain.png" style="height=14px;width:20px;"/></td>\\n                                        </tr>\\n                                        </table>\\n                                </div>\\n\\t\\t\\t\\t<div id="composerD">\\n\\t\\t\\t\\t\\t<img id="closeD" onclick="closedraftmail()" src="\', escape=False)\nresponse.write(URL(\'static\',\'images/close.png\'))\nresponse.write(\'" width="20px" height="20px"></img>\\n                                        <div id="senderD" onclick="senddraftmail()">\\n                                                <p> Send </p>\\n                                        </div>\\n                                        <form>\\n                                                <p id="recvrpD" class="formhead">To</p>\\n                                                <input id="recvrinputD" type="name" name="recvr" onkeyup="auto(event,2)" onkeydown="sendtodiv(event,2)"></input>\\n                                                <div id="suggestionsD">\\n                                                </div>\\n                                                <div id="recvrD">\\n                                                <ul id="receiversD">\\n\\n                                                </ul>\\n                                                </div>\\n                                                <p id="tagpD" class="formhead" >Tag</p>\\n                                                <select class="dropdown">\\n                                                        <option value="1">Academics</option>\\n                                                        <option value="2">Sports</option>\\n                                                        <option value="3">Events</option>\\n                                                        <option value="4">Cultural</option>\\n                                                        <option value="5">Urgent</option>\\n                                                        <option value="6">Lost/Found</option>\\n                                                        <option value="7">General</option>\\n                                                        <option value="8"></option>\\n                                                </select>\\n                                                <p id="subpD" class="formhead" >Subject</p>\\n                                                <input id="subD" type="name" name="sub"></input>\\n                                                <p id="msgpD" class="formhead">Message</p>\\n                                                <textarea id="msgD" name="msg" cols="82.5" rows="20" ></textarea>\\n                                                <p id="attachpD" >Attachments</p>\\n                                                <input id="attachD" type="file"></input>\\n                                        </form>\\n\\t\\t\\t\\t</div>\\n\\t\\t\\t\\t<div id="senter">\\n                                        <table class="table" id="senttable">\\n                                        <tr>\\n                                                <td class="one" id="i1"></td>\\n                                                <td class="two" id="i2">Subject</td>\\n                                                <td class="three" id="i3">Receivers</td>\\n                                                <td class="four" id="i4">Date</td>\\n                                                <td class="five" id="i5"><img src="../static/images/attmain.png" style="height=14px;width:20px;"/></td>\\n                                        </tr>\\n                                        </table>\\n                                </div>\\n\\t\\t\\t\\t<div id="maildetails">\\n\\t\\t\\t\\t</div>\\n\\t\\t\\t\\t<div id="Sentmaildetails">\\n                                     <div id="Senttopdiv">\\n\\t\\t\\t\\t\\t    <img id="closeS" src="\', escape=False)\nresponse.write(URL(\'static\',\'images/close.png\'))\nresponse.write(\'" width="20px" height="20px"></img>\\n\\t\\t\\t\\t\\t    \\t<div id="Senttag">\\n\\t\\t\\t\\t\\t\\t\\t<p>Academics</p>\\n\\t\\t\\t\\t\\t    \\t</div>\\n                                            <div id="Sentsubjectdetails"><h2>Important meeting today</h2><p>To</p></div>\\n\\t\\t\\t\\t            <div id="Sentrecvr">\\n                                                <ul id="Sentrecvrlist">\\n                                                </ul>\\n                                             </div>\\n                                     </div>\\n                                     <div id="Sentmailcontent">\\n                                               There is an important meeting to be held in SH1.<br/>\\n                                                All UG1 students are requested to assemble at 5:00 p.m.<br/>\\n                                              Regards<br/>\\n                                        Appaji<br/>\\n                                     </div>\\n                            <!--         <div id="Sentdivider">\\n                                     </div>\\n                                     <div id="Sentattachdiv">\\n                                        Attachments come here!\\n                                     </div>-->\\n                                </div>\\n\\t\\t\\t</div>\\n\\t\\t</div>\\n\\t</div>\\n\\t<script>\\n\\t\\tip = "127.0.0.1";\\n\\t\\tport = "8000";\\n\\t\\tconn = "http";\\n\\n\\t\\tAcademics = {};\\n                Sports = {};\\n                Events = {};\\n                Cultural = {};\\n                Urgent = {};\\n                LostFound = {};\\n                General = {};\\n                other = {};\\n                BigTable = {};\\n\\t\\tgloballist = ["Academics","Sports","Events","Cultural","Urgent","LostFound","General","SentMails"];\\n\\t\\tvar flag = "Academics";\\n\\n\\t\\ta = document.getElementsByClassName("w2p_fw");\\n\\t\\ta[1].children[0].id = "sender"\\n\\t\\ta[1].children[0].value="Send"\\n\\t\\tvar activeelement = document.getElementById("tabs").children[0];\\n\\t\\tvar sa = document.getElementById("inboxme");\\n\\t\\tvar draftlist = {};\\n\\t\\tvar draftsubject = "";\\n\\t\\tvar draftmessage = "";\\n\\t\\tvar draftreceivers = {};\\n\\t\\tvar deletedraftlist = [];\\n\\t\\tvar deletesentlist = [];\\n\\t\\tvar completelist;\\n                var cuckoo;\\n\\t\\t\\n\\t\\tfunction makesideactive(e){\\n\\t\\t\\tb = document.getElementsByClassName("w2p_fw");\\n\\t\\t\\tb[0].children[0].value="";\\n\\t\\t}\\n\\t\\t\\n                function opendetails(e){\\n      \\t\\t          $("#inboxer").hide();\\n               \\t\\t var tmp=e.id.slice(-1);\\n              \\t\\t  var tag=e.id.slice(7,-1);\\n\\t\\t\\tconsole.log(tag);\\n       \\t\\t       tagjson=eval(tag);\\n\\t\\t\\tconsole.log(tagjson);\\n            \\t   \\t var div=document.getElementById("maildetails");\\n        \\t        div.style.display="block";\\n        \\n\\t                div.innerHTML="<div id=\\\\"topdiv\\\\"><div id=\\\\"subjectdetails\\\\"><h2>"+tagjson[tmp].sub+"</h2></div><div id=\\\\"fromdetails\\\\"><p>From:"+tagjson[tmp].send_id+"</p><p>Time:"+tagjson[tmp].sent_time+"</p><p>Date:"+tagjson[tmp].sent_date+"</p></div></div><div id=\\\\"mailcontent\\\\">"+tagjson[tmp].msg+"</div>";\\n                }\\n\\n\\t\\tfunction makeactive(e){\\n\\t\\t\\t activeelement.className = "tags";\\n\\t\\t\\t activeelement = e;\\n\\t\\t\\t e.className = "activemy";\\n\\t\\t\\t \\n\\t\\t}\\n\\t\\tfunction putinto(el,p)\\n\\t\\t{\\n\\t\\t\\tif( p == 1 )\\n\\t\\t\\t\\tend = "";\\n\\t\\t\\telse\\n\\t\\t\\t\\tend = "D";\\n\\n\\t\\t\\t\\t var id = el.innerHTML;\\n         \\n                                        var listitem = document.createElement("LI");\\n                                        listitem.className = "rev";\\n                                        listitem.onclick = function() { document.getElementById("receivers"+end).removeChild(this); }\\n                                        var text = document.createTextNode(id);\\n                                        listitem.appendChild(text);\\n                                        ulist = document.getElementById("receivers"+end);\\n                                        ulist.appendChild(listitem);\\n                                        document.getElementById("recvrinput"+end).value = "";\\n                           \\n\\t\\n\\t\\t}\\n\\t\\tfunction animatemsg(txt)\\n\\t\\t{\\n\\t\\t\\tvar divid = document.getElementById("layer");\\n\\t\\t\\tdivid.id = "layeractive";\\n\\t\\t\\tmsgdiv = document.getElementById("message").children[0];\\n\\t\\t\\tmsgdiv.innerHTML = txt;\\n\\t\\t\\t$("#message").fadeIn("slow");\\n\\t\\t\\tsetTimeout(function(){ $("#message").fadeOut("fast");document.getElementById("layeractive").id = "layer";},1200);\\n\\t\\t}\\n\\t\\t\\n\\t\\tfunction gettagcount()\\n\\t\\t{\\n\\t\\t\\tvar xml = new XMLHttpRequest();\\n\\t\\t\\tvar name = document.getElementById("idofuser").innerHTML;\\n\\t\\t\\txml.onreadystatechange = function()\\n\\t\\t\\t{\\n\\t\\t\\t\\tif(xml.readyState == 4 && xml.status == 200)\\n\\t\\t\\t\\t{\\n\\t\\t\\t\\t\\tnewobj = JSON.parse(xml.responseText);\\n\\t\\t\\t\\t\\tdocument.getElementById("c1").children[0].innerHTML = newobj["Academics"]\\t\\n\\t\\t\\t\\t\\tdocument.getElementById("c2").children[0].innerHTML = newobj["Sports"]\\n\\t\\t\\t\\t\\tdocument.getElementById("c3").children[0].innerHTML = newobj["Events"]\\n\\t\\t\\t\\t\\tdocument.getElementById("c4").children[0].innerHTML = newobj["Cultural"]\\n\\t\\t\\t\\t\\tdocument.getElementById("c5").children[0].innerHTML = newobj["Urgent"]\\n\\t\\t\\t\\t\\tdocument.getElementById("c6").children[0].innerHTML = newobj["Lost/Found"]\\n\\t\\t\\t\\t\\tdocument.getElementById("c7").children[0].innerHTML = newobj["General"]\\n\\t\\t\\t\\t}\\n\\t\\t\\t}\\n\\t\\t\\txml.open("GET", conn+"://"+ip+":"+port+"/ITWSII_StudentsMail/main/count?name="+name,true);\\n\\t\\t\\txml.send();\\n\\t\\t}\\n\\t\\t\\n\\t\\tdocument.getElementById("search").onkeyup = function (){\\n\\t\\t\\t\\n\\t\\t\\tvar xml = new XMLHttpRequest();\\n\\t\\t\\ttext = document.getElementById("search").value;\\n\\t\\t\\tname = document.getElementById("idofuser").innerHTML;\\n\\t\\t\\tvar parameters = "value="+text+"&name="+name;\\n\\t\\t\\txml.onreadystatechange = function()\\n\\t\\t\\t{\\n\\t\\t\\t\\tif(xml.readyState == 4 && xml.status == 200)\\n\\t\\t\\t\\t{\\n\\t\\t\\t\\t\\tobj = JSON.parse(xml.responseText);\\n\\t\\t\\t\\t\\tvar p = document.getElementById("table_search");\\n\\t\\t\\t\\t\\tfor(i=p.rows.length - 1;i>0;--i)\\n\\t\\t\\t\\t\\t{\\n\\t\\t\\t\\t\\t\\tp.deleteRow(i);\\n\\t\\t\\t\\t\\t}\\n\\t\\t\\t\\t\\tif (obj != "None")\\n\\t\\t\\t\\t\\t{\\n\\t\\t\\t\\t\\t\\tvar rows = ""\\n\\t\\t\\t\\t\\t\\t$.each(obj, function(){\\n\\t\\t\\t\\t\\t\\t\\trows += "<tr><td class=\\\'one\\\'><input type=\\\'checkbox\\\' id=\\\'radio_search\\\'></td><td class=\\\'two\\\'>"+this.subject+"</td><td class=\\\'six\\\'>"+this.tag+"</td><td class=\\\'three\\\'>"+this.sender+"</td><td class=\\\'four\\\'>"+this.sent_date+"</td><td class=\\\'five\\\'><img src=\\\'../static/images/paperclip.png\\\' style=\\\'height:14px;width:28px;\\\'/></td></tr>";\\n\\t\\t\\t\\t\\t\\t})\\n\\t\\t\\t\\t\\t\\t$(rows).appendTo("#table_search");\\n\\t\\t\\t\\t\\t\\t$("#searchbox").show();\\n\\t\\t\\t\\t\\t\\t$("#bigtable_"+flag).hide();\\n\\t\\t\\t\\t\\t\\tdivname =  sa.id.slice(0,-2);\\n\\t\\t\\t\\t\\t\\t$("#"+divname+"er").hide();\\n\\t\\t\\t\\t\\t}\\n\\t\\t\\t\\t\\telse\\n\\t\\t\\t\\t\\t{\\n\\t\\t\\t\\t\\t\\t$("#searchbox").hide();\\n\\t\\t\\t\\t\\t\\tdivname =  sa.id.slice(0,-2);\\n\\t\\t\\t\\t\\t\\tif( divname == "inbox" )\\n\\t\\t\\t\\t\\t\\t{\\n\\t\\t\\t\\t\\t\\t\\t$("#inboxer").show();\\n\\t\\t\\t\\t\\t\\t\\t$("#bigtable_"+flag).show();\\n\\t\\t\\t\\t\\t\\t}\\n\\t\\t\\t\\t\\t\\telse\\n\\t\\t\\t\\t\\t\\t\\t$("#"+divname+"er").show();\\n\\t\\t\\t\\t\\t\\t\\n\\t\\t\\t\\t\\t}\\n\\t\\t\\t\\t}\\n\\t\\t\\t}\\n\\t\\t\\txml.open("GET",conn+"://"+ip+":"+port+"/ITWSII_StudentsMail/main/search?"+parameters, true);\\n\\t\\t\\txml.send();\\n\\t\\t}\\n\\t\\n\\t\\tfunction getuser(){\\n                                var xhr = new XMLHttpRequest();\\n                                xhr.open("GET",conn+"://"+ip+":"+port+"/ITWSII_StudentsMail/main/getuser",true);\\n                                xhr.send();\\n        \\n                                xhr.onreadystatechange = function(){\\n                                        if( xhr.readyState == 4 && xhr.status == 200 )\\n                                        {                \\n\\t\\t\\t\\t\\t\\t\\tvar k = xhr.responseText;\\n\\t\\t\\t\\t\\t\\t\\tgettagcount();\\t\\n\\t\\t\\t\\t\\t}\\n                                \\n\\t\\t\\t\\t}\\n                        \\n                        }\\n\\t\\tfunction sendtodiv(e,p)\\n\\t\\t{\\n\\t\\t\\tif( p == 1 )\\n\\t\\t\\t\\tend = "";\\n\\t\\t\\telse\\n\\t\\t\\t\\tend = "D";\\n\\t\\t\\tif ( e.keyCode == 13 )\\n\\t\\t\\t{\\t\\n\\t\\t\\t\\tvar id = document.getElementById("recvrinput"+end).value;\\n\\t\\t\\t\\tif ( id != "" )\\n\\t\\t\\t\\t{\\n\\t\\t\\t\\t\\tvar listitem = document.createElement("LI");\\n\\t\\t\\t\\t\\tlistitem.className = "rev";\\n\\t\\t\\t\\t\\tlistitem.onclick = function() { document.getElementById("receivers"+end).removeChild(this); }\\n\\t\\t\\t\\t\\tvar id = document.getElementById("recvrinput"+end).value;\\n\\t\\t\\t\\t\\tvar text = document.createTextNode(id);\\n\\t\\t\\t\\t\\tlistitem.appendChild(text);\\n\\t\\t\\t\\t\\tulist = document.getElementById("receivers"+end);\\n\\t\\t\\t\\t\\tulist.appendChild(listitem);\\n\\t\\t\\t\\t\\tdocument.getElementById("recvrinput"+end).value = "";\\n\\t\\t\\t\\t}\\n\\t\\t\\t}\\n\\t\\t}\\n\\t\\tfunction auto(e,p)\\n\\t\\t{\\n\\t\\t\\t\\tif( p == 1 )\\n\\t\\t\\t\\t\\tend = "";\\n\\t\\t\\t\\telse\\n\\t\\t\\t\\t\\tend = "D";\\n\\t\\t\\t\\tvar xhr = new XMLHttpRequest();\\n\\t\\t\\t\\txhr.open("GET",conn+"://"+ip+":"+port+"/ITWSII_StudentsMail/main/getid?id="+document.getElementById("recvrinput"+end).value,true);\\n\\t\\t\\t\\txhr.send()\\n\\t\\t\\t\\t\\n\\t\\t\\t\\txhr.onreadystatechange = function()\\n\\t\\t\\t\\t{\\n\\t\\t\\t\\t\\tif( xhr.readyState == 4 && xhr.status == 200 )\\n\\t\\t\\t\\t\\t{\\n\\t\\t\\t\\t\\t\\tresponse = xhr.responseText;\\n\\t\\t\\t\\t\\t\\tk = response.split(" ");\\n\\t\\t\\t\\t\\t\\tdiv = document.getElementById("suggestions"+end);\\n\\t\\t\\t\\t\\t\\tj = div.children.length;\\n\\t\\t\\t\\t\\t\\tfor( k = j-1 ; k>=0; k-- )\\n\\t\\t\\t\\t\\t\\t\\tdiv.removeChild(div.children[k]);\\n\\t\\t\\t\\t\\t\\t\\n\\t\\t\\t\\t\\t\\tif( document.getElementById("recvrinput"+end).value != "" )\\n\\t\\t\\t\\t\\t\\t{\\n\\t\\t\\t\\t\\t\\t\\tif( response.length != 0 )\\n\\t\\t\\t\\t\\t\\t\\t{\\t\\n\\t\\t\\t\\t\\t\\t\\t\\t\\tk = response.split(" ");\\n\\t\\t\\t\\t\\t\\t\\t\\t\\tfor(i=0;i<k.length;i++)\\n\\t\\t\\t\\t\\t\\t\\t\\t\\t{\\n\\t\\t\\t\\t\\t\\t\\t\\t\\t\\tvar sug = document.createElement("P");\\n\\t\\t\\t\\t\\t\\t\\t\\t\\t\\tvar txt = document.createTextNode(k[i]);\\n\\t\\t\\t\\t\\t\\t\\t\\t\\t\\tsug.appendChild(txt);\\n\\t\\t\\t\\t\\t\\t\\t\\t\\t\\tsug.onclick = function(){ putinto(this,p);  document.getElementById("suggestions"+end).style.visibility = "hidden"; };\\n\\t\\t\\t\\t\\t\\t\\t\\t\\t\\tdiv.appendChild(sug);\\n\\t\\t\\t\\t\\t\\t\\t\\t\\t\\tdiv.style.visibility="visible";\\n\\t\\t\\t\\t\\t\\t\\t\\t\\t}\\n\\t\\t\\t\\t\\t\\t\\t}\\n\\t\\t\\t\\t\\t\\t}\\n\\t\\t\\t\\t\\t\\telse\\n\\t\\t\\t\\t\\t\\t\\tdiv.style.visibility = "hidden";\\n\\t\\t\\t\\t\\t\\t\\t\\n\\t\\t\\t\\t\\t}\\n\\t\\t\\t\\t}\\n\\t\\t}\\n\\t\\tfunction logout(){\\n                                window.location.href = conn+"://"+ip+":"+port+"/ITWSII_StudentsMail/main/loginmy?logout=1"\\n                        }\\n\\t\\tfunction showdraftmessage(e)\\n\\t\\t{\\n\\t\\t\\t\\t  k = e.id;\\n                               \\t  k = k.slice(3,k.length);\\n\\t\\t\\t\\t  document.getElementById("draftdelete").style.display = "none";\\n\\t\\n\\t\\t\\t\\t\\t document.getElementById("subD").value = ""; \\n                                        document.getElementById("msgD").value = "";\\n                                        doko = document.getElementById("recvrD");\\n                                        doko.removeChild(doko.children[0]);\\n                                        koko = document.createElement("UL");\\n                                        koko.id = "receiversD";\\n                                        doko.appendChild(koko);\\n\\n\\t\\t\\t\\t  for ( i=1 ; ; i++ )\\n                                  {\\n                                         if( typeof draftlist[i] != "undefined" )\\n                                         {\\n\\t\\t\\t\\t\\t\\tif ( i == k )\\n\\t\\t\\t\\t\\t\\t{\\n                                                        p = draftlist[i]["receivers"];\\n                                                        for( x = 0;;x++)\\n                                                        {\\n                                                                if ( typeof p[x] == "undefined" )\\n                               \\t\\t\\t\\t\\t\\tbreak;\\n\\t\\t\\t\\t\\t\\t\\t}\\n\\t\\t//\\t\\t\\t\\t\\tx is len;\\n\\t\\t\\t\\t\\n\\t\\t\\t\\t\\t\\t       for( toko= 0; toko < x ; toko ++ )\\n\\t\\t\\t\\t\\t\\t       {\\n\\t\\t\\t\\t\\t\\t\\t\\t\\t  var listitem = document.createElement("LI");\\n                                 \\t\\t\\t\\t          listitem.className = "rev";\\n\\t\\t\\t\\t\\t\\t\\t\\t\\t\\tid = p[toko];\\n                                       \\t\\t\\t\\t\\t\\t listitem.onclick = function() { document.getElementById("receiversD").removeChild(this); }\\n                                     \\t\\t\\t\\t\\t\\t   var text = document.createTextNode(id);\\n                                 \\t\\t\\t\\t\\t       listitem.appendChild(text);\\n                                    \\t\\t\\t\\t\\t    ulist = document.getElementById("receiversD");\\n                                 \\t\\t\\t\\t\\t       ulist.appendChild(listitem);\\n                                   \\t\\t\\t\\t\\t     document.getElementById("recvrinputD").value = "";\\n\\t\\t\\t\\t\\t\\t\\t}\\n                                \\n                  \\t\\t\\t              var tagel = document.getElementsByTagName("select");\\n                            \\t\\t\\t    var tag = tagel[0].options[tagel[0].selectedIndex].innerHTML;\\n                                 \\n\\t\\t\\t\\t\\t\\t\\tdocument.getElementById("closeD").style.display = "block";\\n\\t\\t\\t\\t\\t\\t\\tdocument.getElementById("senderD").style.display = "block";\\n\\t\\t\\t\\t\\t\\t\\tdraftsubject = draftlist[i]["subject"];\\n\\t\\t\\t\\t\\t\\t\\tdraftmessage = draftlist[i]["mail_message"];\\n\\t\\t\\t\\t\\t\\t\\tdraftreceivers = draftlist[i]["receivers"];\\n\\t\\t\\t\\t\\t\\t\\tdocument.getElementById("composerD").style.display = "block";\\n\\t\\t\\t\\t\\t\\t\\tdocument.getElementById("subD").value = draftlist[i]["subject"];\\n                                                        document.getElementById("msgD").value = draftlist[i]["mail_message"];\\n\\n\\t\\t\\t\\t\\t\\t\\tdocument.getElementById("draftser").style.display = "none";   \\n\\t\\t\\t\\t\\t\\t}\\n\\t\\n\\t\\t\\t\\t\\t}\\n\\t\\t\\t\\t\\telse\\n\\t\\t\\t\\t\\t\\tbreak;\\n\\t\\t      \\t\\t}\\n\\t\\t}\\n\\t\\tfunction senddraftmail(){\\n\\n\\t\\t\\t\\tdocument.getElementById("draftdelete").style.display = "none";\\n\\t\\t\\t\\tvar xhr = new XMLHttpRequest();\\n                                var xp = new XMLHttpRequest();\\n                                reclist = {};\\n                                var el = document.getElementById("receiversD");\\n                                list = el.children;\\n                                for( k = 0 ; k < list.length ; k++ )\\n                                        reclist[k] = list[k].innerHTML;\\n                                \\n                                details = {}\\n                                details["receivers"] = JSON.stringify(reclist);\\n                                \\n                                var tagel = document.getElementsByTagName("select");\\n                                var tag = tagel[0].options[tagel[0].selectedIndex].innerHTML;\\n                                \\n                                details["tag"] = tag;\\n                                var sub = document.getElementById("subD").value;\\n                                details["sub"] = sub;\\n                                var msg = document.getElementById("msgD").value;\\n                                details["msg"] = msg;\\n                                var send_id = document.getElementById("idofuser").innerHTML;\\n                                details["send_id"] = send_id;\\n                                var sender_name = document.getElementById("user").innerHTML;\\n                                details["sender_name"] = sender_name;\\n               \\t\\t\\tdraftdetails = {};\\t\\t\\n\\t\\t\\t\\tdraftdetails["send_id"] = send_id;\\n\\t\\t\\t\\tdraftdetails["sender_name"] = sender_name;\\n\\t\\t\\t\\tdraftdetails["sub"] = draftsubject;\\n\\t\\t\\t\\tdraftdetails["message"] = draftmessage;\\n\\t\\t\\t\\tdraftdetails["receivers"] = JSON.stringify(draftreceivers);\\n\\n                                if( tag != "" )\\n                                {\\n\\t\\n                                        xhr.open("POST",conn+"://"+ip+":"+port+"/ITWSII_StudentsMail/main/send",true);\\n                                        xp.open("POST",conn+"://"+ip+":"+port+"/ITWSII_StudentsMail/main/checkdrafts",true);\\n                                        xhr.setRequestHeader("Content-Type", "application/json;charset=UTF-8");\\n                                        xp.setRequestHeader("Content-Type", "application/json;charset=UTF-8");\\n                                        xhr.send(JSON.stringify(details));\\n                                        xp.send(JSON.stringify(draftdetails));\\n\\n                                        xhr.onreadystatechange = function(){\\n                                                \\n                                                if( xhr.readyState == 4 && xhr.status == 200 )\\n                                                {\\n                                                        animatemsg(xhr.responseText);\\n                                                \\tdocument.getElementById("composerD").style.display = "none";\\n                                                        document.getElementById("draftser").style.display = "block";\\n\\t\\t\\t\\t\\t\\t\\tdocument.getElementById("draftdelete").style.display = "block";   \\n\\t\\t\\t\\t\\t\\t\\trefreshdraftmails();\\n\\t\\t\\t\\t\\t\\t}\\n                                        }\\n                                        xp.onreadystatechange = function(){\\n                                                if ( xp.readyState == 4 && xp.status == 200 )\\n                                                        console.log(xp.responseText);\\n                                        }\\n                                }\\n                                else\\n                                {\\n                                        if( id == "" )\\n                                                animatemsg("Receivers ID field can not be left empty");\\n                                }\\n\\t\\t\\t\\t\\t\\n\\t\\t}\\n\\t\\tfunction closedraftmail()\\n\\t\\t{\\n\\t\\t\\t\\t  var xhr = new XMLHttpRequest();\\n                                reclist = {};\\n                                var el = document.getElementById("receiversD");\\n                                list = el.children;\\n                                for( k = 0 ; k < list.length ; k++ )\\n                                        reclist[k] = list[k].innerHTML;\\n                                \\n                                details = {};\\n                                if( reclist.length != 0 )\\n                                {\\n                                       details["receivers"] = JSON.stringify(reclist);\\n                                \\n                                       var tagel = document.getElementsByTagName("select");\\n                                       var tag = tagel[0].options[tagel[0].selectedIndex].innerHTML;\\n                                \\n                                        details["tag"] = tag;\\n                                        var sub = document.getElementById("subD").value;\\n                                        details["sub"] = sub;\\n                                        var msg = document.getElementById("msgD").value;\\n                                        details["msg"] = msg;\\n                                        if( sub != "" && msg != "" )\\n                                        {\\n                                                     var send_id = document.getElementById("idofuser").innerHTML;\\n                                                             details["send_id"] = send_id;\\n                                                     var sender_name = document.getElementById("user").innerHTML;\\n                                                     details["sender_name"] = sender_name;\\n       \\n                                                     xhr.open("POST",conn+"://"+ip+":"+port+"/ITWSII_StudentsMail/main/drafts",true);\\n                                                     xhr.setRequestHeader("Content-Type", "application/json;charset=UTF-8");\\n                                           \\t     xhr.send(JSON.stringify(details));\\n                                              \\t//\\tconsole.log(details);\\n\\t\\t\\t\\t\\t\\t       xhr.onreadystatechange = function(){\\n                                                \\n                                                                     if( xhr.readyState == 4 && xhr.status == 200 )\\n                                                                     {\\n\\t\\t\\t\\t\\t\\t\\t\\t\\t\\tif ( xhr.responseText != "already" )\\n\\t\\t\\t\\t\\t\\t\\t\\t\\t\\t{\\n\\t\\t\\t\\t\\t\\t\\t\\t\\t\\t\\tanimatemsg("Message saved to drafts!");\\n\\t\\t\\t\\t\\t\\t\\t\\t\\t\\t\\trefreshdraftmails();\\n                                                      \\t\\t\\t\\t}\\n                                        \\t\\t\\t     }\\n                        \\t\\t\\t\\t}\\n                                \\t}\\n\\t\\t\\t\\t}\\n\\t\\t\\t\\tdocument.getElementById("closeD").style.display = "none";\\n                                document.getElementById("senderD").style.display = "none";\\n\\t\\t\\t\\tdocument.getElementById("composerD").style.display = "none";\\n                                document.getElementById("draftser").style.display = "block";   \\n\\t\\t\\t\\tdocument.getElementById("draftdelete").style.display = "block";\\n\\t\\t}\\n\\t\\tfunction refreshdraftmails()\\n\\t\\t{\\n\\t\\t\\t\\t\\tdraftlist = {}; \\n                                        var xp = new XMLHttpRequest();\\n                                \\n                                        xp.open("GET",conn+"://"+ip+":"+port+"/ITWSII_StudentsMail/main/getdrafts?email="+document.getElementById("idofuser").innerHTML,true);\\n                                        xp.send();\\n                                \\n                                        l = document.getElementById("draftser");\\n                                        l.removeChild(l.children[0]);\\n                                        table = document.createElement("TABLE");\\n                                        table.id = "drafttable";\\n                                        table.className = "table";\\n                                        l.appendChild(table);\\n                                        \\n\\t\\t\\t\\t\\t $("#drafttable").append("<tr><td class=\\\'one\\\' id=\\\'i1\\\'></td><td class=\\\'two\\\' id=\\\'i2\\\'>Subject</td><td class=\\\'three\\\' id=\\\'i3\\\'>Receivers</td><td class=\\\'four\\\' id=\\\'i4\\\'>Date</td><td class=\\\'five\\\' id=\\\'i5\\\'><img src=\\\'../static/images/attmain.png\\\' height=\\\'14px\\\' width=\\\'20px\\\'/></td></tr>");\\n\\n\\n                                        xp.onreadystatechange = function()\\n                                        {\\n                                                if( xp.readyState == 4 && xp.status == 200 )\\n                                                {\\n                                                        draftlist = JSON.parse(xp.responseText);\\n                                                        for ( i=1 ; ; i++ )\\n                                                        {\\n                                                                if( typeof draftlist[i] != "undefined" )\\n                                                                {\\n                                                                        p = draftlist[i]["receivers"];\\n                                                                        for( k = 0;;k++)\\n                                                                        {\\n                                                                                if ( typeof p[k] == "undefined" )\\n                                                                                        break;\\n                                                                        }\\n\\t\\t\\t\\t\\t\\t\\t\\t\\t$("#drafttable").append("<tr><td class=\\\'one\\\'><input onclick=\\\'selectdelmails(this,2)\\\' type=\\\'checkbox\\\' name=\\\'radiog_lite\\\' id=\\\'radio\\\' class=\\\'css-checkbox\\\'></td><td class=\\\'two\\\' onclick=\\\'showdraftmessage(this)\\\' id=\\\'msg"+i+"\\\'><label class=\\\'css-label\\\'>"+draftlist[i][\\\'subject\\\']+"</label></td><td class=\\\'three\\\'>"+k+"</td><td class=\\\'four\\\'>"+draftlist[i][\\\'made_date\\\']+"</td><td class=\\\'five\\\'><img src=\\\'../static/images/paperclip.png\\\' height=\\\'14px\\\' width=\\\'28px\\\'></img></tr>");\\n                                                                \\n       \\t                                                        }\\n                                                                else if( typeof draftlist[i] == "undefined" )\\n                                                                       break;\\n\\n                                                        }\\n\\t\\t\\t\\t\\t\\t}\\n\\t\\t\\t\\t\\t}\\n\\t\\t}\\n\\t\\tfunction refreshsentmails()\\n\\t\\t{\\n\\t\\t\\t\\tvar xhr = new XMLHttpRequest();\\n                                xhr.open("GET",conn+"://"+ip+":"+port+"/ITWSII_StudentsMail/main/sentmails?email="+document.getElementById("idofuser").innerHTML,true);\\n                                xhr.send();\\n                        \\n                                l = document.getElementById("senter");\\n                                l.removeChild(l.children[0]);\\n                                table = document.createElement("TABLE");\\n                                table.id = "senttable";\\n                                table.className = "table";\\n                                l.appendChild(table);\\n                                        \\n                                $("#senttable").append("<tr><td class=\\\'one\\\' id=\\\'i1\\\'></td><td class=\\\'two\\\' id=\\\'i2\\\'>Subject</td><td class=\\\'three\\\' id=\\\'i3\\\'>Receivers</td><td class=\\\'four\\\' id=\\\'i4\\\'>Date</td><td class=\\\'five\\\' id=\\\'i5\\\'><img src=\\\'../static/images/attmain.png\\\' height=\\\'14px\\\' width=\\\'20px\\\'/></td></tr>");\\n\\n                                xhr.onreadystatechange = function(){\\n                                        \\n                                                if( xhr.readyState == 4 && xhr.status == 200 )\\n                                                {\\n                                                        completelist = JSON.parse(xhr.responseText);\\n                                                        for( i in completelist )\\n                                                        {\\n                                                                k = completelist[i]["receivers"].split(" ");\\n                                                                console.log(k);\\n                                                                $("#senttable").append("<tr><td class=\\\'one\\\'><input onclick=\\\'selectdelmails(this,1)\\\' type=\\\'checkbox\\\' name=\\\'radiog_lite\\\' id=\\\'radio\\\' class=\\\'css-checkbox\\\'></td><td class=\\\'two\\\' onclick=\\\'showsentmessage(this)\\\' id=\\\'sent"+i+"\\\'><label class=\\\'css-label\\\'>"+completelist[i]["subject"]+"</label></td><td class=\\\'three\\\'>"+(k.length-1)+"</td><td class=\\\'four\\\'>"+completelist[i]["sent_date"]+"</td><td class=\\\'five\\\'><img src=\\\'../static/images/paperclip.png\\\' height=\\\'14px\\\' width=\\\'28px\\\'></img></tr>");\\n                                                        }\\n                                                }       \\n\\t\\t\\t\\t}\\n\\t\\t\\t\\tgettagcount();\\n\\t\\t}\\n\\t\\tfunction deletethesemails()\\n\\t\\t{\\n\\t\\t\\tdeleter = {};\\n\\t\\t\\tdivname =  sa.id.slice(0,-2);\\n\\t\\t\\tif( divname == "drafts" )\\n\\t\\t\\t{\\n\\t\\t\\t\\tvarname = deletedraftlist;\\n\\t\\t\\t\\twhichlist = draftlist;\\n\\t\\t\\t\\tslicewhat = 3;\\n\\t\\t\\t}\\n\\t\\t\\telse if( divname == "sent")\\n\\t\\t\\t{\\t\\n\\t\\t\\t\\tvarname = deletesentlist;\\n\\t\\t\\t\\twhichlist = completelist;\\n\\t\\t\\t\\tslicewhat = 4;\\n\\t\\t\\t}\\n\\t\\t\\tfor(i=0 ; i< varname.length ; i++ )\\n\\t\\t\\t{\\n\\t\\t\\t\\tidofmsg = varname[i].slice(slicewhat,varname[i].length);\\n\\t\\t\\t\\tdeleter[i] = JSON.stringify(whichlist[idofmsg]);\\n\\t\\t\\t}\\n\\t\\t\\tconsole.log(JSON.stringify(deleter));\\n\\t\\n\\t\\t\\tvar xhr = new XMLHttpRequest();\\n\\t\\t\\txhr.open("POST",conn+"://"+ip+":"+port+"/ITWSII_StudentsMail/main/delete"+divname,true);\\n\\t\\t\\txhr.setRequestHeader("Content-Type","application/json;charset=UTF-8");\\n\\t\\t\\txhr.send(JSON.stringify(deleter));\\n\\t\\t\\n\\t\\t\\txhr.onreadystatechange = function()\\n\\t\\t\\t{\\n\\t\\t\\t\\tif( xhr.readyState == 4 && xhr.status == 200 )\\n\\t\\t\\t\\t{\\tanimatemsg(xhr.responseText);\\n\\t\\t\\t\\t\\tif( divname == "sent" )\\n\\t\\t\\t\\t\\t{\\n\\t\\t\\t\\t\\t\\trefreshsentmails();\\n\\t\\t\\t\\t\\t\\tdeletesentlist = [];\\n\\t\\t\\t\\t\\t}\\n\\t\\t\\t\\t\\telse if( divname == "drafts" )\\n\\t\\t\\t\\t\\t{\\trefreshdraftmails();\\n\\t\\t\\t\\t\\t\\tdeletedraftlist = [];\\n\\t\\t\\t\\t\\t}\\n\\t\\t\\t\\t}\\n\\t\\t\\t}\\n\\t\\t}\\n\\t\\tfunction selectdelmails(e,pizza)\\n\\t\\t{\\n\\t\\t\\t\\n\\t\\t\\tid = e.parentNode.parentNode.children[1].id;\\n\\t\\t\\tif ( e.checked == true )\\n\\t\\t\\t{\\n\\t\\t\\t\\te.parentNode.className="selected";\\n\\t\\t\\t\\tif( pizza == 1 )\\n\\t\\t\\t\\t\\tdeletesentlist.push(id);\\n\\t\\t\\t\\telse if(pizza == 2 )\\n\\t\\t\\t\\t\\tdeletedraftlist.push(id);\\t\\t\\t\\n\\t\\t\\t}\\n\\t\\t\\telse\\n\\t\\t\\t{\\n\\t\\t\\t\\tk = [];\\n\\t\\t\\t\\tif( pizza == 1 )\\n\\t\\t\\t\\t{\\n\\t\\t\\t\\t\\te.parentNode.className = "original";\\n\\t\\t\\t\\t\\tdeletesentlist.filter(function(idd) { if( idd != id ) { k.push(idd) } });\\n\\t\\t\\t\\t\\tdeletedraftlist = k;\\n\\t\\t\\t\\t}\\n\\t\\t\\t\\telse if(pizza == 2 )\\n\\t\\t\\t\\t{\\n\\t\\t\\t\\t\\te.parentNode.className = "original";\\n\\t\\t\\t\\t\\tdeletedraftlist.filter(function(idd) { if( idd != id ) { k.push(idd) } });\\n\\t\\t\\t\\t\\tdeletesentlist = k;\\n\\t\\t\\t\\t}\\n\\t\\t\\t}\\n\\t\\t}\\n\\t\\tfunction showsentmessage(e)\\n\\t\\t{\\n\\n\\t\\t\\tpopop = e.id.slice(4,e.id.length);\\n\\t\\t\\tdocument.getElementById("senter").style.display = "none";\\n\\t\\t\\tdocument.getElementById("Sentmaildetails").style.display = "block";\\n\\t\\t\\tmail = completelist[popop];\\n\\t\\t\\t\\n\\t\\t\\t doko = document.getElementById("Sentrecvr");\\n                         doko.removeChild(doko.children[0]);\\n                         koko = document.createElement("UL");\\n                         koko.id = "Sentrecvrlist";\\n                         doko.appendChild(koko);\\n\\t\\t\\t\\n\\t\\t\\tk = completelist[popop]["receivers"].split(" ");\\n\\t\\t\\tfor(i=0;i<k.length;i++)\\n\\t\\t\\t{\\n\\t\\t\\t\\tif( k[i] != "" )\\n\\t\\t\\t\\t{\\n\\t\\t\\t\\tvar listitem = document.createElement("LI");\\n       \\t\\t                 listitem.className = "rev";\\n                 \\t       var text = document.createTextNode(k[i]);\\n                \\t        listitem.appendChild(text);\\n               \\t\\t         ulist = document.getElementById("Sentrecvrlist");\\n                        \\tulist.appendChild(listitem);\\n\\t\\t\\t\\t}\\n\\t\\t\\t}\\n\\t\\t\\tdocument.getElementById("Senttag").children[0].innerHTML = mail["tag"];\\n\\t\\t\\tdocument.getElementById("Sentsubjectdetails").children[0].innerHTML = mail["subject"];\\n                        document.getElementById("Sentmailcontent").innerHTML = mail["mail_message"];\\n\\t\\t\\n\\t\\t}\\n\\t\\tfunction closesentmail()\\n\\t\\t{\\n\\t\\t\\tdocument.getElementById("senter").style.display = "block";\\n                        document.getElementById("sentview").style.display = "none";\\t\\t\\n\\t\\t}\\n\\t\\tfunction openinbox(e){\\n\\n\\t\\t\\t $("#inboxer").show();\\n\\t\\t\\t document.getElementById("search").value = "";\\n                         details=document.getElementById("maildetails")\\n                         details.style.display="none";\\n                         activeelement.className = "tags";\\n                         activeelement = e;\\n                         e.className = "activemy";\\n                         taginboxname = e.id.slice(4,e.id.length);\\n\\t\\t\\t flag = taginboxname;\\n\\t\\t              \\t\\t\\tvar div=document.getElementById("div"+taginboxname);\\n                                                div.removeChild(document.getElementById("bigtable_"+taginboxname));\\n                                                var table=document.createElement("TABLE");\\n\\t\\t\\t\\t\\t\\ttable.className = "table";\\n                                                table.id="bigtable_"+taginboxname;\\n                                                div.appendChild(table);\\n                                                appendfirstrow(taginboxname);\\n                                                reloadpage();\\n                                                for(i=0;i<globallist.length;i++)\\n                                                {\\n                                                        if( globallist[i] != taginboxname )\\n                                                                $("#bigtable_"+globallist[i]).hide();\\n                                                }\\n\\t\\t\\t\\t\\t\\t$("#searchbox").hide();\\n                                                $("#bigtable_"+taginboxname).show();\\n\\n                }\\n\\t\\tfunction appendtotable(tag, tmpobj, count)\\n                {\\n\\n                                $("#bigtable_"+tag).append("<tr><td class=\\\\"one\\\\"><input type=\\\\"checkbox\\\\" id=\\\\"radio"+tag+count+"\\\\"/></td><td class=\\\\"two\\\\" id=\\\\"subject"+tag+count+"\\\\"  onclick=\\\\"opendetails(this)\\\\"><label for=\\\\"radio"+tag+count+"\\\\">"+tmpobj.sub+"</label></td><td class=\\\\"three\\\\">"+tmpobj.send_id+"</td><td class=\\\\"four\\\\">"+tmpobj.sent_date+"</td><td class=\\\\"five\\\\"><img src=\\\\"../static/images/paperclip.png\\\\" style=\\\\"height=14px;width:28px\\\\"/></td></tr>");\\n                }\\n\\n               function appendfirstrow(tag)\\n               {\\n                                $("#bigtable_"+tag).append("<tr><td class=\\\\"one\\\\" id=\\\\"i1\\\\"></td><td class=\\\\"two\\\\" id=\\\\"i2\\\\">Subject</td><td class=\\\\"three\\\\" id=\\\\"i3\\\\">From</td><td class=\\\\"four\\\\" id=\\\\"i4\\\\">Date</td><td class=\\\\"five\\\\" id=\\\\"i5\\\\"><img src=\\\\"../static/images/attmain.png\\\\" style=\\\\"height=14px;width:20px;\\\\"/></td></tr>");\\n                                \\n\\n                }\\n\\t\\t\\t\\n\\t\\tfunction reloadpage()\\n                        {\\n\\t\\t\\t\\tgettagcount();\\n                                var xhr = new XMLHttpRequest();\\n                                var l = document.getElementById("idofuser").innerHTML;\\n                                xhr.open("GET",conn+"://"+ip+":"+port+"/ITWSII_StudentsMail/main/show?id="+l,true);\\n                                xhr.send();\\n\\n\\n                                xhr.onreadystatechange = function()\\n                                {\\n                                        if( xhr.readyState == 4 && xhr.status == 200 )\\n                                        {       \\n                                                Academics_count=1;\\n                                                Sports_count=1;\\n                                                Events_count=1;\\n                                                Cultural_count=1;\\n                                                Urgent_count=1;\\n                                                LostFound_count=1;\\n                                                General_count=1;\\n                                                other_count=1;\\n\\n                                                obj=JSON.parse(xhr.responseText);\\n                                                jQuery.each(obj, function(keyi, valuei) {\\n                                                            tmpobj = valuei;\\n                                                            jQuery.each(tmpobj,function(keyj,valuej){\\n                                                                    if(keyj=="tag"&&valuej=="Academics"){\\n                                                                                Academics[Academics_count]=valuei;\\n                                                                                        appendtotable("Academics", tmpobj, Academics_count);    \\n                                                                        Academics_count += 1;     \\n                                                                    }\\n                                                                    else if(keyj=="tag"&&valuej=="Sports"){\\n                                                                                Sports[Sports_count]=valuei;\\n                                                                                appendtotable("Sports", tmpobj, Sports_count);\\n                                                                                Sports_count += 1;\\n                                                                                }\\n                                                                    else if(keyj=="tag"&&valuej=="Events"){\\n                                                                                Events[Events_count]=valuei;\\n                                                                                appendtotable("Events", tmpobj, Events_count);\\n                                                                                Events_count += 1;\\n                                                                    }\\n\\t\\t\\t\\t\\t\\t\\t\\t    else if(keyj=="tag"&&valuej=="Cultural"){\\n                                                                                Cultural[Cultural_count]=valuei;\\n                                                                                appendtotable("Cultural", tmpobj, Cultural_count);\\n                                                                        Cultural_count += 1;\\n                                                                    }\\n                                                                    else if (keyj=="tag"&&valuej=="Urgent"){\\n                                                                        Urgent[Urgent_count]=valuei;\\n                                                                        appendtotable("Urgent", tmpobj, Urgent_count);\\n                                                                        Urgent_count += 1;\\n                                                                    }\\n                                                                    else if(keyj=="tag"&&valuej=="Lost/Found"){\\n                                                                                LostFound[LostFound_count]=valuei;\\n                                                                                appendtotable("LostFound", tmpobj, LostFound_count);\\n                                                                                LostFound_count += 1;\\n                                                                    }\\n                                                                    else if(keyj=="tag"&&valuej=="General"){\\n                                                                                General[General_count]=valuei;\\n                                                                                appendtotable("General", tmpobj, General_count);\\n                                                                                General_count += 1;\\n                                                                        }\\n                                                                        \\n\\n                                                                    });\\n\\n                                                            });\\n                                                }\\n                                        }\\n                        }\\n\\n\\t\\t$(document).ready(function()\\n\\t\\t{\\n\\t\\t\\tsa = document.getElementById("inboxme");\\t\\n\\t\\t\\t$("#searchbox").hide();\\n\\t\\t\\t$("#bigtable_Academics").show();\\n                        $("#bigtable_Sports").hide();\\n                        $("#bigtable_Events").hide();\\n                        $("#bigtable_Cultural").hide();\\n                        $("#bigtable_Urgent").hide();\\n                        $("#bigtable_LostFound").hide();\\n                        $("#bigtable_General").hide();\\n                        $("#bigtable_SentMails").hide();\\n                        $("#maildetails").hide()\\n                        reloadpage();\\n\\t \\t\\tshowinbox();\\n\\t\\t\\t\\t\\n\\t\\t\\tfunction savetodrafts(){\\n\\t\\n\\t\\t\\t\\tvar xhr = new XMLHttpRequest();\\n                                reclist = {};\\n                                var el = document.getElementById("receivers");\\n                                list = el.children;\\n                                for( k = 0 ; k < list.length ; k++ )\\n                                        reclist[k] = list[k].innerHTML;\\n                                \\n                                details = {};\\n\\t\\t\\t\\tif( reclist.length != 0 )\\n\\t\\t\\t\\t{\\n                         \\t       details["receivers"] = JSON.stringify(reclist);\\n                                \\n                       \\t               var tagel = document.getElementsByTagName("select");\\n                       \\t               var tag = tagel[0].options[tagel[0].selectedIndex].innerHTML;\\n                                \\n                        \\t        details["tag"] = tag;\\n                                \\tvar sub = document.getElementById("sub").value;\\n                 \\t                details["sub"] = sub;\\n                       \\t\\t        var msg = document.getElementById("msg").value;\\n                 \\t                details["msg"] = msg;\\n\\t\\t\\t\\t\\tif( sub != "" && msg != "" )\\n\\t\\t\\t\\t\\t{\\n           \\t        \\t                     var send_id = document.getElementById("idofuser").innerHTML;\\n                \\t    \\t        \\t             details["send_id"] = send_id;\\n                                    \\t\\t     var sender_name = document.getElementById("user").innerHTML;\\n                     \\t         \\t             details["sender_name"] = sender_name;\\n\\t\\t\\t\\t\\t\\t     \\t\\n\\t\\t\\t\\t\\t\\t     xhr.open("POST",conn+"://"+ip+":"+port+"/ITWSII_StudentsMail/main/drafts",true);\\n                              \\t\\t             xhr.setRequestHeader("Content-Type", "application/json;charset=UTF-8");\\n                               \\t\\t      \\t     xhr.send(JSON.stringify(details));\\n              \\t\\t                             xhr.onreadystatechange = function(){\\n                                                \\n                           \\t\\t\\t                     if( xhr.readyState == 4 && xhr.status == 200 )\\n                                            \\t\\t\\t     \\t       animatemsg(xhr.responseText);\\n                                                      }\\n                                        }\\n\\t\\t\\t\\n\\t\\t\\t\\t}\\n\\t\\t\\t}\\n\\t\\t\\t\\t\\n\\t\\t\\t$("#composeme").click(function(){\\n\\t\\t\\n\\t\\t\\t\\t document.getElementById("sub").value = ""; \\n                                        document.getElementById("msg").value = "";\\n                                        d = document.getElementById("recvr");\\n                                        d.removeChild(d.children[0]);\\n                                        k = document.createElement("UL");\\n                                        k.id = "receivers";\\n                                        d.appendChild(k);\\n\\n\\t\\t\\t\\tsa.className = "down";\\n                                e = document.getElementById("composeme");\\n                                divname =  sa.id.slice(0,-2);\\n\\t\\t\\t\\tif ( divname == "compose" )\\n                                {\\n\\t\\t\\t\\t\\t $("#close").fadeOut("fast");\\n                                                 $("#sender").fadeOut("fast"); \\n                                                 $("#composer").fadeOut("fast");\\n\\t\\n                                }\\n                        \\telse if( divname == "drafts" )\\n                                      $("#draftdelete").fadeOut("fast");\\n      \\t\\t\\t\\telse if( divname == "sent" )\\n\\t\\t\\t\\t      document.getElementById("sentview").style.display = "none";     \\n\\t\\t\\t\\telse if(divname == "inbox")\\n\\t\\t\\t\\t      document.getElementById("inboxer").style.display = "none";\\n \\n\\t\\t\\t\\t$("#"+divname+"er").fadeOut("fast");\\t\\t\\n                                e.className = "sideactive";\\n\\t\\t\\t\\tsa = e;\\n\\t\\t\\t\\t $("#close").fadeIn("slow");\\n                                 $("#sender").fadeIn("slow"); \\n                                 $("#composer").fadeIn("slow");\\n\\n\\n\\n\\t\\t\\t\\t});\\n\\t\\t\\t$("#close").click(function(){\\n\\t\\t\\t\\t\\n\\t\\t\\t\\t\\tsavetodrafts();\\n\\t\\t\\t\\t\\tsa.className = "down";\\n                                        e = document.getElementById("inboxme");\\n                                        $("#close").fadeOut("fast");\\n                                        $("#sender").fadeOut("fast"); \\n                                        $("#composer").fadeOut("fast");\\n                                        e.className = "sideactive";\\n                                        $("#inboxer").fadeIn("slow");\\n                                        sa = e;\\t\\n\\t\\t\\t\\t\\t$("#composer").fadeOut("fast");\\n\\t\\t\\t});\\n\\t\\t\\t$("#sender").click(function(){\\n                                var xhr = new XMLHttpRequest();\\n                            \\tvar xp = new XMLHttpRequest();\\n\\t\\t\\t        reclist = {};\\n\\t\\t\\t\\tvar el = document.getElementById("receivers");\\n\\t\\t\\t\\tlist = el.children;\\n\\t\\t\\t\\tif( list.length != 0 )\\n\\t\\t\\t\\t{\\n\\t\\t\\t\\tfor( k = 0 ; k < list.length ; k++ )\\n\\t\\t\\t\\t\\treclist[k] = list[k].innerHTML;\\n\\t\\t\\t\\t\\n\\t\\t\\t\\tdetails = {}\\n\\t\\t\\t\\tdetails["receivers"] = JSON.stringify(reclist);\\n\\t\\t\\t\\t\\n\\t\\t\\t\\tvar tagel = document.getElementsByTagName("select");\\n\\t\\t\\t\\tvar tag = tagel[0].options[tagel[0].selectedIndex].innerHTML;\\n\\t\\t\\t\\t\\n\\t\\t\\t\\tdetails["tag"] = tag;\\n\\t\\t\\t\\tvar sub = document.getElementById("sub").value;\\n\\t\\t\\t\\tdetails["sub"] = sub;\\n                                var msg = document.getElementById("msg").value;\\n\\t\\t\\t\\tdetails["msg"] = msg;\\n                                var send_id = document.getElementById("idofuser").innerHTML;\\n\\t\\t\\t\\tdetails["send_id"] = send_id;\\n                                var sender_name = document.getElementById("user").innerHTML;\\n        \\t\\t\\tdetails["sender_name"] = sender_name;\\n\\t\\t\\t\\tanimatemsg("Message Sent!"); \\t\\n                                if( tag != "" )\\n                                {\\n                                        xhr.open("POST",conn+"://"+ip+":"+port+"/ITWSII_StudentsMail/main/send",true);\\n\\t\\t\\t\\t\\txhr.setRequestHeader("Content-Type", "application/json;charset=UTF-8");\\n                                        xhr.send(JSON.stringify(details));\\n                                        xhr.onreadystatechange = function(){\\n                                                if( xhr.readyState == 4 && xhr.status == 200 )\\n                                                {\\n\\t\\t\\t\\t\\t\\t\\t$("#composer").fadeOut("fast");\\n                                                \\tsa.className = "down";\\n\\t\\t\\t\\t\\t\\t\\tgettagcount();\\n\\t\\t\\t                                e = document.getElementById("inboxme");\\n                                   \\t\\t\\t      $("#close").fadeOut("fast");\\n                                              \\t\\t      $("#sender").fadeOut("fast"); \\n                                           \\t\\t      $("#composer").fadeOut("fast");\\n                                \\n                             \\t\\t\\t       e.className = "sideactive";\\n                            \\t\\t\\t       $("#inboxer").fadeIn("slow");\\n    \\t                  \\t\\t\\t       sa = e;\\t\\n\\t\\t\\t\\t\\t\\t}\\n                                        }\\n                                }\\n\\t\\t\\t\\t}\\n                                else\\n                               \\t{\\n                                                animatemsg("Receivers field can not be left empty");\\n                                }\\n                \\t});\\t\\n\\t\\t\\tfunction showinbox()\\n\\t\\t\\t{\\n\\t\\t\\t\\tsa.className = "down";\\n\\t\\t\\t\\tdivname =  sa.id.slice(0,-2);\\n                                e = document.getElementById("inboxme");\\n                                document.getElementById("maildetails").style.display = "none";\\n\\t\\t\\t\\tif ( divname == "compose" )\\n                                {\\n                                         $("#close").fadeOut("fast");\\n                                                 $("#sender").fadeOut("fast"); \\n                                                 $("#composer").fadeOut("fast");\\n\\n                                }\\n                                else if( divname == "drafts" )\\n                                {\\n\\t\\t\\t\\t       document.getElementById("draftser").style.display = "none"; \\t\\n\\t\\t\\t\\t       $("#draftdelete").fadeOut("fast");\\n                                }\\n\\t\\t\\t\\telse if( divname == "sent" )\\n                                {     document.getElementById("senter").style.display = "none";     \\n                               \\t      $("#draftdelete").fadeOut("fast");\\n\\t\\t\\t\\t} \\n                                $("#"+divname+"er").fadeOut("fast");\\n                                e.className = "sideactive";\\n                                $("#inboxer").fadeIn("slow");\\n\\n                                sa = e;\\n                                \\n                                var xhr = new XMLHttpRequest();\\n                                var l = document.getElementById("idofuser").innerHTML;\\n                                xhr.open("GET",conn+"://"+ip+":"+port+"/ITWSII_StudentsMail/main/show?id="+l,true);\\n                                xhr.send();\\n\\n                                xhr.onreadystatechange = function()\\n                                {\\n                                        if( xhr.readyState == 4 && xhr.status == 200 )\\n                                        {       \\n                                                obj=JSON.parse(xhr.responseText);\\n                                                jQuery.each(obj, function(key, value) {\\n                                                            //console.log(key, value);\\n                                                            tmpobj = value;\\n                                                            jQuery.each(tmpobj,function(key,value){\\n                                                                    if (key=="tag"&&value=="Academics"){\\n                                                                         console.log(key,value);\\n                                                                         }\\n                                                                    });\\n\\t\\t\\t\\t           });\\n                                \\t}       \\n\\t\\t\\t\\t}\\n\\t\\t\\t}\\n\\t\\t\\t$("#inboxme").click(function(){\\tshowinbox(); });\\n\\t\\t\\n\\n\\t\\t\\t$("#draftsme").click(function(){\\n               \\t\\t\\t       \\n\\t\\t\\t\\t       sa.className = "down";\\n                              \\t       e = document.getElementById("draftsme");\\n                               \\t       document.getElementById("search").value = "";\\n\\t                               $("#searchbox").hide();\\n\\n\\t\\t\\t\\t       divname =  sa.id.slice(0,-2);\\n                         \\t       if ( divname == "compose" )\\n                                \\t{\\n\\t\\t\\t\\t\\t\\t $("#close").fadeOut("fast");\\n\\t\\t\\t\\t\\t\\t $("#sender").fadeOut("fast"); \\n\\t\\t\\t\\t\\t\\t $("#composer").fadeOut("fast");\\n\\t\\n\\t\\t\\t\\t\\t}\\n\\t\\t\\t\\t\\t else if( divname == "sent" )\\n\\t                                      document.getElementById("senter").style.display = "none";     \\n\\t\\t\\t\\t\\telse if( divname == "inbox" )\\n\\t\\t\\t\\t\\t{\\n\\t\\t\\t\\t\\t     document.getElementById("inboxer").style.display = "none";\\n\\t\\t\\t\\t\\t     document.getElementById("maildetails").style.display = "none";\\n\\n\\t\\t\\t\\t\\t}\\n\\t\\t\\t\\t\\t$("#"+divname+"er").fadeOut("slow");\\n \\n                      \\t                e.className = "sideactive";\\n        \\t            \\t\\t$("#draftser").fadeIn("slow");\\n\\t\\t\\t\\t\\tsa = e;\\n\\t\\t\\t\\t\\n\\t\\t\\t\\t\\t$("#draftdelete").fadeIn("slow");\\n\\t\\t\\t\\t\\trefreshdraftmails();\\n\\t\\t\\t});\\n\\t\\t\\t$("#sentme").click(function(){\\n\\n\\t\\t\\t\\tdocument.getElementById("search").value = "";\\n\\t                        $("#searchbox").hide();\\n\\t\\n\\t\\t\\t\\tsa.className = "down";\\n                                e = document.getElementById("sentme");\\n                                divname =  sa.id.slice(0,-2);   \\n\\t\\t\\t\\tif ( divname == "compose" )\\n                                {\\n                                         $("#close").fadeOut("fast");\\n                                                 $("#sender").fadeOut("fast"); \\n                                                 $("#composer").fadeOut("fast");\\n\\n                                }\\n                             \\telse if( divname == "sent" )\\n                                      document.getElementById("senter").style.display = "none";     \\n\\t\\t\\t\\telse if(divname == "inbox" )\\n\\t\\t\\t\\t{\\t\\n\\t\\t\\t\\t     document.getElementById("inboxer").style.display = "none";\\n\\t\\t\\t\\t     document.getElementById("maildetails").style.display = "none";\\n\\t\\t\\t\\t}\\t\\n\\t\\t\\t\\t$("#draftdelete").fadeIn("fast");\\n\\t\\t\\t        $("#"+divname+"er").fadeOut("fast");\\n                           \\n\\t\\t\\t        e.className = "sideactive";\\n                                $("#senter").fadeIn("slow");\\n                                sa = e;\\n                               \\t\\n\\t\\t\\t\\tdocument.getElementById("senter").style.display = "block";\\n        \\t                document.getElementById("Sentmaildetails").style.display = "none";             \\n\\t \\n\\t\\t\\t\\trefreshsentmails();\\n\\t\\t\\t});\\n\\t\\t\\t$("#closeS").click(function(){\\n\\t\\t\\t\\tdocument.getElementById("Sentmaildetails").style.display = "none";\\n\\t\\t\\t\\tdocument.getElementById("senter").style.display = "block";\\n\\t\\t\\t});\\n\\t\\t});\\n\\t</script>\\n\\n</body>\\n</html>\\n\', escape=False)'
p7
sS'snapshot'
p8
(dp9
S'exception'
p10
(dp11
S'__hash__'
p12
S"<method-wrapper '__hash__' of exceptions.NameError object>"
p13
sS'__setattr__'
p14
S"<method-wrapper '__setattr__' of exceptions.NameError object>"
p15
sS'__reduce_ex__'
p16
S'<built-in method __reduce_ex__ of exceptions.NameError object>'
p17
sS'__getslice__'
p18
S"<method-wrapper '__getslice__' of exceptions.NameError object>"
p19
sS'__getitem__'
p20
S"<method-wrapper '__getitem__' of exceptions.NameError object>"
p21
sS'__setstate__'
p22
S'<built-in method __setstate__ of exceptions.NameError object>'
p23
sS'args'
p24
S'("name \'form\' is not defined",)'
p25
sS'__reduce__'
p26
S'<built-in method __reduce__ of exceptions.NameError object>'
p27
sS'__str__'
p28
S"<method-wrapper '__str__' of exceptions.NameError object>"
p29
sS'__format__'
p30
S'<built-in method __format__ of exceptions.NameError object>'
p31
sS'__getattribute__'
p32
S"<method-wrapper '__getattribute__' of exceptions.NameError object>"
p33
sS'__class__'
p34
S"<type 'exceptions.NameError'>"
p35
sS'__unicode__'
p36
S'<built-in method __unicode__ of exceptions.NameError object>'
p37
sS'__delattr__'
p38
S"<method-wrapper '__delattr__' of exceptions.NameError object>"
p39
sS'__subclasshook__'
p40
S'<built-in method __subclasshook__ of type object>'
p41
sS'__repr__'
p42
S"<method-wrapper '__repr__' of exceptions.NameError object>"
p43
sS'__dict__'
p44
S'{}'
p45
sS'__sizeof__'
p46
S'<built-in method __sizeof__ of exceptions.NameError object>'
p47
sS'__doc__'
p48
S"'Name not found globally.'"
p49
sS'__init__'
p50
S"<method-wrapper '__init__' of exceptions.NameError object>"
p51
sS'__new__'
p52
S'<built-in method __new__ of type object>'
p53
ssS'evalue'
p54
S"name 'form' is not defined"
p55
sS'request'
p56
cgluon.html
XML_unpickle
p57
(S's?S\x00\x00<div><table><tr><td style="font-weight:bold;vertical-align:top;">ajax</td><td style="vertical-align:top;">:</td><td><div>False</div></td></tr><tr><td style="font-weight:bold;vertical-align:top;">application</td><td style="vertical-align:top;">:</td><td><div>ITWSII_StudentsMail</div></td></tr><tr><td style="font-weight:bold;vertical-align:top;">args</td><td style="vertical-align:top;">:</td><td><div><table></table></div></td></tr><tr><td style="font-weight:bold;vertical-align:top;">cid</td><td style="vertical-align:top;">:</td><td><div>None</div></td></tr><tr><td style="font-weight:bold;vertical-align:top;">client</td><td style="vertical-align:top;">:</td><td><div>127.0.0.1</div></td></tr><tr><td style="font-weight:bold;vertical-align:top;">controller</td><td style="vertical-align:top;">:</td><td><div>main</div></td></tr><tr><td style="font-weight:bold;vertical-align:top;">cookies</td><td style="vertical-align:top;">:</td><td><div><table><tr><td style="font-weight:bold;vertical-align:top;">session_id_admin</td><td style="vertical-align:top;">:</td><td><div>127.0.0.1-0dbb2b95-411e-4fd6-9f93-89cce306866d<table><tr><td style="font-weight:bold;vertical-align:top;">comment</td><td style="vertical-align:top;">:</td><td><div></div></td></tr><tr><td style="font-weight:bold;vertical-align:top;">domain</td><td style="vertical-align:top;">:</td><td><div></div></td></tr><tr><td style="font-weight:bold;vertical-align:top;">expires</td><td style="vertical-align:top;">:</td><td><div></div></td></tr><tr><td style="font-weight:bold;vertical-align:top;">httponly</td><td style="vertical-align:top;">:</td><td><div></div></td></tr><tr><td style="font-weight:bold;vertical-align:top;">max-age</td><td style="vertical-align:top;">:</td><td><div></div></td></tr><tr><td style="font-weight:bold;vertical-align:top;">path</td><td style="vertical-align:top;">:</td><td><div></div></td></tr><tr><td style="font-weight:bold;vertical-align:top;">secure</td><td style="vertical-align:top;">:</td><td><div></div></td></tr><tr><td style="font-weight:bold;vertical-align:top;">version</td><td style="vertical-align:top;">:</td><td><div></div></td></tr></table></div></td></tr><tr><td style="font-weight:bold;vertical-align:top;">session_id_itwsii_studentsmail</td><td style="vertical-align:top;">:</td><td><div>127.0.0.1-5305879a-8382-420c-94cf-1d38c2df4ada<table><tr><td style="font-weight:bold;vertical-align:top;">comment</td><td style="vertical-align:top;">:</td><td><div></div></td></tr><tr><td style="font-weight:bold;vertical-align:top;">domain</td><td style="vertical-align:top;">:</td><td><div></div></td></tr><tr><td style="font-weight:bold;vertical-align:top;">expires</td><td style="vertical-align:top;">:</td><td><div></div></td></tr><tr><td style="font-weight:bold;vertical-align:top;">httponly</td><td style="vertical-align:top;">:</td><td><div></div></td></tr><tr><td style="font-weight:bold;vertical-align:top;">max-age</td><td style="vertical-align:top;">:</td><td><div></div></td></tr><tr><td style="font-weight:bold;vertical-align:top;">path</td><td style="vertical-align:top;">:</td><td><div></div></td></tr><tr><td style="font-weight:bold;vertical-align:top;">secure</td><td style="vertical-align:top;">:</td><td><div></div></td></tr><tr><td style="font-weight:bold;vertical-align:top;">version</td><td style="vertical-align:top;">:</td><td><div></div></td></tr></table></div></td></tr></table></div></td></tr><tr><td style="font-weight:bold;vertical-align:top;">env</td><td style="vertical-align:top;">:</td><td><div><table><tr><td style="font-weight:bold;vertical-align:top;">HTTP_ACCEPT</td><td style="vertical-align:top;">:</td><td><div>text/html,application/xhtml+xml,application/xml;q=0.9,*/*;q=0.8</div></td></tr><tr><td style="font-weight:bold;vertical-align:top;">HTTP_ACCEPT_ENCODING</td><td style="vertical-align:top;">:</td><td><div>gzip, deflate</div></td></tr><tr><td style="font-weight:bold;vertical-align:top;">HTTP_ACCEPT_LANGUAGE</td><td style="vertical-align:top;">:</td><td><div>en-US,en;q=0.5</div></td></tr><tr><td style="font-weight:bold;vertical-align:top;">HTTP_CONNECTION</td><td style="vertical-align:top;">:</td><td><div>keep-alive</div></td></tr><tr><td style="font-weight:bold;vertical-align:top;">HTTP_COOKIE</td><td style="vertical-align:top;">:</td><td><div>session_id_itwsii_studentsmail=127.0.0.1-5305879a-8382-420c-94cf-1d38c2df4ada; session_id_admin=127.0.0.1-0dbb2b95-411e-4fd6-9f93-89cce306866d</div></td></tr><tr><td style="font-weight:bold;vertical-align:top;">HTTP_HOST</td><td style="vertical-align:top;">:</td><td><div>127.0.0.1:8000</div></td></tr><tr><td style="font-weight:bold;vertical-align:top;">HTTP_USER_AGENT</td><td style="vertical-align:top;">:</td><td><div>Mozilla/5.0 (X11; Ubuntu; Linux x86_64; rv:28.0) Gecko/20100101 Firefox/28.0</div></td></tr><tr><td style="font-weight:bold;vertical-align:top;">PATH_INFO</td><td style="vertical-align:top;">:</td><td><div>/ITWSII_StudentsMail/main/mails</div></td></tr><tr><td style="font-weight:bold;vertical-align:top;">QUERY_STRING</td><td style="vertical-align:top;">:</td><td><div></div></td></tr><tr><td style="font-weight:bold;vertical-align:top;">REMOTE_ADDR</td><td style="vertical-align:top;">:</td><td><div>127.0.0.1</div></td></tr><tr><td style="font-weight:bold;vertical-align:top;">REMOTE_PORT</td><td style="vertical-align:top;">:</td><td><div>43078</div></td></tr><tr><td style="font-weight:bold;vertical-align:top;">REQUEST_METHOD</td><td style="vertical-align:top;">:</td><td><div>GET</div></td></tr><tr><td style="font-weight:bold;vertical-align:top;">SCRIPT_NAME</td><td style="vertical-align:top;">:</td><td><div></div></td></tr><tr><td style="font-weight:bold;vertical-align:top;">SERVER_NAME</td><td style="vertical-align:top;">:</td><td><div>Beast</div></td></tr><tr><td style="font-weight:bold;vertical-align:top;">SERVER_PORT</td><td style="vertical-align:top;">:</td><td><div>8000</div></td></tr><tr><td style="font-weight:bold;vertical-align:top;">SERVER_PROTOCOL</td><td style="vertical-align:top;">:</td><td><div>HTTP/1.1</div></td></tr><tr><td style="font-weight:bold;vertical-align:top;">SERVER_SOFTWARE</td><td style="vertical-align:top;">:</td><td><div>Rocket 1.2.6</div></td></tr><tr><td style="font-weight:bold;vertical-align:top;">app_folders</td><td style="vertical-align:top;">:</td><td><div>set([&#x27;/home/hitesh96db/Documents/web2py/applications/ITWSII_StudentsMail/&#x27;, &#x27;/home/hitesh96db/Documents/web2py/applications/admin/&#x27;])</div></td></tr><tr><td style="font-weight:bold;vertical-align:top;">applications_parent</td><td style="vertical-align:top;">:</td><td><div>/home/hitesh96db/Documents/web2py</div></td></tr><tr><td style="font-weight:bold;vertical-align:top;">cmd_args</td><td style="vertical-align:top;">:</td><td><div><table></table></div></td></tr><tr><td style="font-weight:bold;vertical-align:top;">cmd_options</td><td style="vertical-align:top;">:</td><td><div>&lt;Values at 0x1eb1878: {&#x27;verbose&#x27;: False, &#x27;ip&#x27;: &#x27;127.0.0.1&#x27;, &#x27;debuglevel&#x27;: 30, &#x27;with_scheduler&#x27;: False, &#x27;ips&#x27;: [&#x27;127.0.1.1&#x27;], &#x27;shutdown_timeout&#x27;: 5, &#x27;taskbar&#x27;: False, &#x27;with_coverage&#x27;: False, &#x27;port&#x27;: 8000, &#x27;maxthreads&#x27;: None, &#x27;softcron&#x27;: False, &#x27;server_name&#x27;: &#x27;Beast&#x27;, &#x27;bpython&#x27;: False, &#x27;nogui&#x27;: False, &#x27;pid_filename&#x27;: &#x27;httpserver.pid&#x27;, &#x27;extcron&#x27;: False, &#x27;runcron&#x27;: False, &#x27;run_system_tests&#x27;: False, &#x27;test&#x27;: None, &#x27;folder&#x27;: &#x27;/home/hitesh96db/Documents/web2py&#x27;, &#x27;config&#x27;: &#x27;&#x27;, &#x27;minthreads&#x27;: None, &#x27;shell&#x27;: None, &#x27;run&#x27;: &#x27;&#x27;, &#x27;log_filename&#x27;: &#x27;httpserver.log&#x27;, &#x27;profiler_dir&#x27;: None, &#x27;args&#x27;: [&#x27;&#x27;], &#x27;socket_timeout&#x27;: 5, &#x27;ssl_ca_certificate&#x27;: None, &#x27;scheduler&#x27;: None, &#x27;interfaces&#x27;: None, &#x27;ssl_private_key&#x27;: &#x27;&#x27;, &#x27;scheduler_groups&#x27;: None, &#x27;password&#x27;: &#x27;&lt;ask&gt;&#x27;, &#x27;request_queue_size&#x27;: 5, &#x27;ssl_certificate&#x27;: &#x27;&#x27;, &#x27;cronjob&#x27;: False, &#x27;numthreads&#x27;: None, &#x27;quiet&#x27;: False, &#x27;import_models&#x27;: False, &#x27;timeout&#x27;: 10, &#x27;plain&#x27;: False, &#x27;nobanner&#x27;: False}&gt;</div></td></tr><tr><td style="font-weight:bold;vertical-align:top;">db_sessions</td><td style="vertical-align:top;">:</td><td><div>set([])</div></td></tr><tr><td style="font-weight:bold;vertical-align:top;">debugging</td><td style="vertical-align:top;">:</td><td><div>False</div></td></tr><tr><td style="font-weight:bold;vertical-align:top;">gluon_parent</td><td style="vertical-align:top;">:</td><td><div>/home/hitesh96db/Documents/web2py</div></td></tr><tr><td style="font-weight:bold;vertical-align:top;">http_accept</td><td style="vertical-align:top;">:</td><td><div>text/html,application/xhtml+xml,application/xml;q=0.9,*/*;q=0.8</div></td></tr><tr><td style="font-weight:bold;vertical-align:top;">http_accept_encoding</td><td style="vertical-align:top;">:</td><td><div>gzip, deflate</div></td></tr><tr><td style="font-weight:bold;vertical-align:top;">http_accept_language</td><td style="vertical-align:top;">:</td><td><div>en-US,en;q=0.5</div></td></tr><tr><td style="font-weight:bold;vertical-align:top;">http_connection</td><td style="vertical-align:top;">:</td><td><div>keep-alive</div></td></tr><tr><td style="font-weight:bold;vertical-align:top;">http_cookie</td><td style="vertical-align:top;">:</td><td><div>session_id_itwsii_studentsmail=127.0.0.1-5305879a-8382-420c-94cf-1d38c2df4ada; session_id_admin=127.0.0.1-0dbb2b95-411e-4fd6-9f93-89cce306866d</div></td></tr><tr><td style="font-weight:bold;vertical-align:top;">http_host</td><td style="vertical-align:top;">:</td><td><div>127.0.0.1:8000</div></td></tr><tr><td style="font-weight:bold;vertical-align:top;">http_user_agent</td><td style="vertical-align:top;">:</td><td><div>Mozilla/5.0 (X11; Ubuntu; Linux x86_64; rv:28.0) Gecko/20100101 Firefox/28.0</div></td></tr><tr><td style="font-weight:bold;vertical-align:top;">is_jython</td><td style="vertical-align:top;">:</td><td><div>False</div></td></tr><tr><td style="font-weight:bold;vertical-align:top;">is_pypy</td><td style="vertical-align:top;">:</td><td><div>False</div></td></tr><tr><td style="font-weight:bold;vertical-align:top;">is_source</td><td style="vertical-align:top;">:</td><td><div>True</div></td></tr><tr><td style="font-weight:bold;vertical-align:top;">local_hosts</td><td style="vertical-align:top;">:</td><td><div><table><tr><td><div>Beast</div></td></tr><tr><td><div>::1</div></td></tr><tr><td><div>127.0.1.1</div></td></tr><tr><td><div>::ffff:127.0.0.1</div></td></tr><tr><td><div>127.0.0.1</div></td></tr></table></div></td></tr><tr><td style="font-weight:bold;vertical-align:top;">path_info</td><td style="vertical-align:top;">:</td><td><div>/ITWSII_StudentsMail/main/mails</div></td></tr><tr><td style="font-weight:bold;vertical-align:top;">query_string</td><td style="vertical-align:top;">:</td><td><div></div></td></tr><tr><td style="font-weight:bold;vertical-align:top;">remote_addr</td><td style="vertical-align:top;">:</td><td><div>127.0.0.1</div></td></tr><tr><td style="font-weight:bold;vertical-align:top;">remote_port</td><td style="vertical-align:top;">:</td><td><div>43078</div></td></tr><tr><td style="font-weight:bold;vertical-align:top;">request_method</td><td style="vertical-align:top;">:</td><td><div>GET</div></td></tr><tr><td style="font-weight:bold;vertical-align:top;">request_uri</td><td style="vertical-align:top;">:</td><td><div>/ITWSII_StudentsMail/main/mails</div></td></tr><tr><td style="font-weight:bold;vertical-align:top;">script_name</td><td style="vertical-align:top;">:</td><td><div></div></td></tr><tr><td style="font-weight:bold;vertical-align:top;">server_name</td><td style="vertical-align:top;">:</td><td><div>Beast</div></td></tr><tr><td style="font-weight:bold;vertical-align:top;">server_port</td><td style="vertical-align:top;">:</td><td><div>8000</div></td></tr><tr><td style="font-weight:bold;vertical-align:top;">server_protocol</td><td style="vertical-align:top;">:</td><td><div>HTTP/1.1</div></td></tr><tr><td style="font-weight:bold;vertical-align:top;">server_software</td><td style="vertical-align:top;">:</td><td><div>Rocket 1.2.6</div></td></tr><tr><td style="font-weight:bold;vertical-align:top;">web2py_path</td><td style="vertical-align:top;">:</td><td><div>/home/hitesh96db/Documents/web2py</div></td></tr><tr><td style="font-weight:bold;vertical-align:top;">web2py_version</td><td style="vertical-align:top;">:</td><td><div>2.9.5-stable+timestamp.2014.03.16.02.35.39</div></td></tr><tr><td style="font-weight:bold;vertical-align:top;">wsgi.errors</td><td style="vertical-align:top;">:</td><td><div>&lt;open file &#x27;&lt;stderr&gt;&#x27;, mode &#x27;w&#x27; at 0x7f3504e10270&gt;</div></td></tr><tr><td style="font-weight:bold;vertical-align:top;">wsgi.file_wrapper</td><td style="vertical-align:top;">:</td><td><div>&lt;class wsgiref.util.FileWrapper at 0x1e330b8&gt;</div></td></tr><tr><td style="font-weight:bold;vertical-align:top;">wsgi.input</td><td style="vertical-align:top;">:</td><td><div>&lt;socket._fileobject object at 0x7f34c82715d0&gt;</div></td></tr><tr><td style="font-weight:bold;vertical-align:top;">wsgi.multiprocess</td><td style="vertical-align:top;">:</td><td><div>False</div></td></tr><tr><td style="font-weight:bold;vertical-align:top;">wsgi.multithread</td><td style="vertical-align:top;">:</td><td><div>True</div></td></tr><tr><td style="font-weight:bold;vertical-align:top;">wsgi.run_once</td><td style="vertical-align:top;">:</td><td><div>False</div></td></tr><tr><td style="font-weight:bold;vertical-align:top;">wsgi.url_scheme</td><td style="vertical-align:top;">:</td><td><div>http</div></td></tr><tr><td style="font-weight:bold;vertical-align:top;">wsgi.version</td><td style="vertical-align:top;">:</td><td><div><table><tr><td><div>1</div></td></tr><tr><td><div>0</div></td></tr></table></div></td></tr><tr><td style="font-weight:bold;vertical-align:top;">wsgi_errors</td><td style="vertical-align:top;">:</td><td><div>&lt;open file &#x27;&lt;stderr&gt;&#x27;, mode &#x27;w&#x27; at 0x7f3504e10270&gt;</div></td></tr><tr><td style="font-weight:bold;vertical-align:top;">wsgi_file_wrapper</td><td style="vertical-align:top;">:</td><td><div>&lt;class wsgiref.util.FileWrapper at 0x1e330b8&gt;</div></td></tr><tr><td style="font-weight:bold;vertical-align:top;">wsgi_input</td><td style="vertical-align:top;">:</td><td><div>&lt;socket._fileobject object at 0x7f34c82715d0&gt;</div></td></tr><tr><td style="font-weight:bold;vertical-align:top;">wsgi_multiprocess</td><td style="vertical-align:top;">:</td><td><div>False</div></td></tr><tr><td style="font-weight:bold;vertical-align:top;">wsgi_multithread</td><td style="vertical-align:top;">:</td><td><div>True</div></td></tr><tr><td style="font-weight:bold;vertical-align:top;">wsgi_run_once</td><td style="vertical-align:top;">:</td><td><div>False</div></td></tr><tr><td style="font-weight:bold;vertical-align:top;">wsgi_url_scheme</td><td style="vertical-align:top;">:</td><td><div>http</div></td></tr><tr><td style="font-weight:bold;vertical-align:top;">wsgi_version</td><td style="vertical-align:top;">:</td><td><div><table><tr><td><div>1</div></td></tr><tr><td><div>0</div></td></tr></table></div></td></tr></table></div></td></tr><tr><td style="font-weight:bold;vertical-align:top;">extension</td><td style="vertical-align:top;">:</td><td><div>html</div></td></tr><tr><td style="font-weight:bold;vertical-align:top;">folder</td><td style="vertical-align:top;">:</td><td><div>/home/hitesh96db/Documents/web2py/applications/ITWSII_StudentsMail/</div></td></tr><tr><td style="font-weight:bold;vertical-align:top;">function</td><td style="vertical-align:top;">:</td><td><div>mails</div></td></tr><tr><td style="font-weight:bold;vertical-align:top;">global_settings</td><td style="vertical-align:top;">:</td><td><div><table><tr><td style="font-weight:bold;vertical-align:top;">app_folders</td><td style="vertical-align:top;">:</td><td><div>set([&#x27;/home/hitesh96db/Documents/web2py/applications/ITWSII_StudentsMail/&#x27;, &#x27;/home/hitesh96db/Documents/web2py/applications/admin/&#x27;])</div></td></tr><tr><td style="font-weight:bold;vertical-align:top;">applications_parent</td><td style="vertical-align:top;">:</td><td><div>/home/hitesh96db/Documents/web2py</div></td></tr><tr><td style="font-weight:bold;vertical-align:top;">cmd_args</td><td style="vertical-align:top;">:</td><td><div><table></table></div></td></tr><tr><td style="font-weight:bold;vertical-align:top;">cmd_options</td><td style="vertical-align:top;">:</td><td><div>&lt;Values at 0x1eb1878: {&#x27;verbose&#x27;: False, &#x27;ip&#x27;: &#x27;127.0.0.1&#x27;, &#x27;debuglevel&#x27;: 30, &#x27;with_scheduler&#x27;: False, &#x27;ips&#x27;: [&#x27;127.0.1.1&#x27;], &#x27;shutdown_timeout&#x27;: 5, &#x27;taskbar&#x27;: False, &#x27;with_coverage&#x27;: False, &#x27;port&#x27;: 8000, &#x27;maxthreads&#x27;: None, &#x27;softcron&#x27;: False, &#x27;server_name&#x27;: &#x27;Beast&#x27;, &#x27;bpython&#x27;: False, &#x27;nogui&#x27;: False, &#x27;pid_filename&#x27;: &#x27;httpserver.pid&#x27;, &#x27;extcron&#x27;: False, &#x27;runcron&#x27;: False, &#x27;run_system_tests&#x27;: False, &#x27;test&#x27;: None, &#x27;folder&#x27;: &#x27;/home/hitesh96db/Documents/web2py&#x27;, &#x27;config&#x27;: &#x27;&#x27;, &#x27;minthreads&#x27;: None, &#x27;shell&#x27;: None, &#x27;run&#x27;: &#x27;&#x27;, &#x27;log_filename&#x27;: &#x27;httpserver.log&#x27;, &#x27;profiler_dir&#x27;: None, &#x27;args&#x27;: [&#x27;&#x27;], &#x27;socket_timeout&#x27;: 5, &#x27;ssl_ca_certificate&#x27;: None, &#x27;scheduler&#x27;: None, &#x27;interfaces&#x27;: None, &#x27;ssl_private_key&#x27;: &#x27;&#x27;, &#x27;scheduler_groups&#x27;: None, &#x27;password&#x27;: &#x27;&lt;ask&gt;&#x27;, &#x27;request_queue_size&#x27;: 5, &#x27;ssl_certificate&#x27;: &#x27;&#x27;, &#x27;cronjob&#x27;: False, &#x27;numthreads&#x27;: None, &#x27;quiet&#x27;: False, &#x27;import_models&#x27;: False, &#x27;timeout&#x27;: 10, &#x27;plain&#x27;: False, &#x27;nobanner&#x27;: False}&gt;</div></td></tr><tr><td style="font-weight:bold;vertical-align:top;">db_sessions</td><td style="vertical-align:top;">:</td><td><div>set([])</div></td></tr><tr><td style="font-weight:bold;vertical-align:top;">debugging</td><td style="vertical-align:top;">:</td><td><div>False</div></td></tr><tr><td style="font-weight:bold;vertical-align:top;">gluon_parent</td><td style="vertical-align:top;">:</td><td><div>/home/hitesh96db/Documents/web2py</div></td></tr><tr><td style="font-weight:bold;vertical-align:top;">is_jython</td><td style="vertical-align:top;">:</td><td><div>False</div></td></tr><tr><td style="font-weight:bold;vertical-align:top;">is_pypy</td><td style="vertical-align:top;">:</td><td><div>False</div></td></tr><tr><td style="font-weight:bold;vertical-align:top;">is_source</td><td style="vertical-align:top;">:</td><td><div>True</div></td></tr><tr><td style="font-weight:bold;vertical-align:top;">local_hosts</td><td style="vertical-align:top;">:</td><td><div><table><tr><td><div>Beast</div></td></tr><tr><td><div>::1</div></td></tr><tr><td><div>127.0.1.1</div></td></tr><tr><td><div>::ffff:127.0.0.1</div></td></tr><tr><td><div>127.0.0.1</div></td></tr></table></div></td></tr><tr><td style="font-weight:bold;vertical-align:top;">web2py_version</td><td style="vertical-align:top;">:</td><td><div>2.9.5-stable+timestamp.2014.03.16.02.35.39</div></td></tr></table></div></td></tr><tr><td style="font-weight:bold;vertical-align:top;">is_https</td><td style="vertical-align:top;">:</td><td><div>False</div></td></tr><tr><td style="font-weight:bold;vertical-align:top;">is_local</td><td style="vertical-align:top;">:</td><td><div>True</div></td></tr><tr><td style="font-weight:bold;vertical-align:top;">is_restful</td><td style="vertical-align:top;">:</td><td><div>False</div></td></tr><tr><td style="font-weight:bold;vertical-align:top;">now</td><td style="vertical-align:top;">:</td><td><div>datetime.datetime(2014, 4, 14, 23, 19, 8, 423218)</div></td></tr><tr><td style="font-weight:bold;vertical-align:top;">raw_args</td><td style="vertical-align:top;">:</td><td><div></div></td></tr><tr><td style="font-weight:bold;vertical-align:top;">raw_extension</td><td style="vertical-align:top;">:</td><td><div>None</div></td></tr><tr><td style="font-weight:bold;vertical-align:top;">url</td><td style="vertical-align:top;">:</td><td><div>/ITWSII_StudentsMail/main/mails</div></td></tr><tr><td style="font-weight:bold;vertical-align:top;">utcnow</td><td style="vertical-align:top;">:</td><td><div>datetime.datetime(2014, 4, 14, 17, 49, 8, 423241)</div></td></tr><tr><td style="font-weight:bold;vertical-align:top;">uuid</td><td style="vertical-align:top;">:</td><td><div>ITWSII_StudentsMail/127.0.0.1.2014-04-14.23-19-08.ff143395-d32b-495a-b812-d2b0996af9f1</div></td></tr><tr><td style="font-weight:bold;vertical-align:top;">wsgi</td><td style="vertical-align:top;">:</td><td><div>&lt;gluon.main.LazyWSGI object at 0x7f34d4631710&gt;</div></td></tr></table></div>'
tRp58
sS'frames'
p59
(lp60
(dp61
S'file'
p62
S'/home/hitesh96db/Documents/web2py/gluon/restricted.py'
p63
sS'dump'
p64
(dp65
S'environment'
p66
S"{'A': <class 'gluon.html.A'>, 'ANY_OF': <class 'gluon.validators.ANY_OF'>, 'Auth': <class 'gluon.tools.Auth'>, 'B': <class 'gluon.html.B'>, 'BEAUTIFY': <class 'gluon.html.BEAUTIFY'>, 'BODY': <class 'gluon.html.BODY'>, 'BR': <class 'gluon.html.BR'>, 'BUTTON': <class 'gluon.html.BUTTON'>, 'CAT': <class 'gluon.html.CAT'>, 'CENTER': <class 'gluon.html.CENTER'>, ...}"
p67
sS'ccode'
p68
S'<code object <module> at 0x7f34d4634930, file "/...WSII_StudentsMail/views/main/mails.html", line 1>'
p69
ssS'lnum'
p70
I220
sS'lines'
p71
(dp72
I224
S'        # do not encapsulate (obfuscate) the original RestrictedError'
p73
sI215
S'    try:'
p74
sI216
S'        if isinstance(code, types.CodeType):'
p75
sI217
S'            ccode = code'
p76
sI218
S'        else:'
p77
sI219
S'            ccode = compile2(code, layer)'
p78
sI220
S'        exec ccode in environment'
p79
sI221
S'    except HTTP:'
p80
sI222
S'        raise'
p81
sI223
S'    except RestrictedError:'
p82
ssS'call'
p83
S'(code=r"response.write(\'<html>\\n<head>\\n\\t<title>Student...\\t</script>\\n\\n</body>\\n</html>\\n\', escape=False)", environment={\'A\': <class \'gluon.html.A\'>, \'ANY_OF\': <class \'gluon.validators.ANY_OF\'>, \'Auth\': <class \'gluon.tools.Auth\'>, \'B\': <class \'gluon.html.B\'>, \'BEAUTIFY\': <class \'gluon.html.BEAUTIFY\'>, \'BODY\': <class \'gluon.html.BODY\'>, \'BR\': <class \'gluon.html.BR\'>, \'BUTTON\': <class \'gluon.html.BUTTON\'>, \'CAT\': <class \'gluon.html.CAT\'>, \'CENTER\': <class \'gluon.html.CENTER\'>, ...}, layer=\'/home/hitesh96db/Documents/web2py/applications/ITWSII_StudentsMail/views/main/mails.html\')'
p84
sS'func'
p85
S'restricted'
p86
sa(dp87
g62
S'/home/hitesh96db/Documents/web2py/applications/ITWSII_StudentsMail/views/main/mails.html'
p88
sg64
(dp89
S'div'
p90
S'undefined'
p91
ssg70
I40
sg71
(dp92
I32
S"response.write(URL('static','images/important1.png'))"
p93
sI33
S'response.write(\'" width="30px" height="30px"></img>\\n\\t\\t\\t\\t\\t<li id="importantme" class="down" onclick="makesideactive(this)" ><a >Important</a></li>\\n\\t\\t\\t\\t\\t<img id="trash" src="\', escape=False)'
p94
sI34
S"response.write(URL('static','images/trash.png'))"
p95
sI35
S'response.write(\'" width="30px" height="30px"></img>\\n\\t\\t\\t\\t\\t<li id="trashme" class="down" onclick="makesideactive(this)" ><a >Trash</a></li>\\n\\t\\t\\t\\t</ul>\\n\\t\\t\\t</div>\\n\\t\\t\\t<img src="\', escape=False)'
p96
sI36
S"response.write(URL('static','images/delete.png'))"
p97
sI37
S'response.write(\'" onclick="deletethesemails()" width="30px" height="30px" title="Delete!" id="draftdelete"></img>\\n\\t\\t\\t<div id="allmails">\\n\\t\\t\\t\\t<div id="searchbox">\\n\\t\\t\\t\\t\\t<table class="table" id="table_search">\\n\\t\\t\\t\\t\\t<tr>\\n\\t\\t\\t\\t\\t<td class="one" id="i-1"></td>\\n\\t\\t\\t\\t\\t<td class="two" id="i-2">Subject</td>\\n\\t\\t\\t\\t\\t<td class="six" id="i-3">Tag</td>\\n\\t\\t\\t\\t\\t<td class="three" id="i-4">From</td>\\n\\t\\t\\t\\t\\t<td class="four" id="i-5">Date</td>\\n\\t\\t\\t\\t\\t<td class="five" id="i-6"><img src="../static/images/attmain.png" style="height=14px;width:20px;"/></td>\\n\\t\\t\\t\\t\\t</table>\\n\\t\\t\\t\\t</div>\\n\\t\\t\\t\\t<div id="inboxer">\\n\\t\\t\\t\\t\\t<div id="divAcademics">\\n\\t\\t\\t\\t\\t\\t<table class="table" id="bigtable_Academics">\\n\\t\\t\\t\\t\\t\\t<tr>\\n\\t\\t\\t\\t\\t\\t<td class="one" id="i1"></td>\\n\\t\\t\\t\\t\\t\\t<td class="two" id="i2">Subject</td>\\n\\t\\t\\t\\t\\t\\t<td class="three" id="i3">From</td>\\n\\t\\t\\t\\t\\t\\t<td class="four" id="i4">Date</td>\\n\\t\\t\\t\\t\\t\\t<td class="five" id="i5"><img src="../static/images/attmain.png" style="height=14px;width:20px;"/></td>\\n\\t\\t\\t\\t\\t\\t</tr>\\n\\t\\t\\t\\t\\t\\t</table>\\n\\t\\t\\t\\t\\t</div>\\n\\t\\n\\t\\t\\t\\t\\t<div id="divSports">\\n                                                <table class="table" id="bigtable_Sports">\\n                                                <tr>\\n                                                <td class="one" id="i1"></td>\\n                                                <td class="two" id="i2">Subject</td>\\n                                                <td class="three" id="i3">From</td>\\n                                                <td class="four" id="i4">Date</td>\\n                                                <td class="five" id="i5"><img src="../static/images/attmain.png" style="height=14px;width:20px;"/></td>\\n                                                </tr>\\n                                                </table>\\n                                        </div>\\n\\n\\t\\t\\t\\t\\t<div id="divEvents">\\n                                                <table class="table" id="bigtable_Events">\\n                                                <tr>\\n                                                <td class="one" id="i1"></td>\\n                                                <td class="two" id="i2">Subject</td>\\n                                                <td class="three" id="i3">From</td>\\n                                                <td class="four" id="i4">Date</td>\\n                                                <td class="five" id="i5"><img src="../static/images/attmain.png" style="height=14px;width:20px;"/></td>\\n                                                </tr>\\n                                                </table>\\n                                        </div>\\n\\n\\t\\t\\t\\t\\t<div id="divCultural">\\n                                                <table class="table" id="bigtable_Cultural">\\n                                                <tr>\\n                                                <td class="one" id="i1"></td>\\n                                                <td class="two" id="i2">Subject</td>\\n                                                <td class="three" id="i3">From</td>\\n                                                <td class="four" id="i4">Date</td>\\n                                                <td class="five" id="i5"><img src="../static/images/attmain.png" style="height=14px;width:20px;"/></td>\\n                                                </tr>\\n                                                </table>\\n                                        </div>\\n\\t\\t\\n\\t\\t\\t\\t\\t<div id="divUrgent">\\n                                                <table class="table" id="bigtable_Urgent">\\n                                                <tr>\\n                                                <td class="one" id="i1"></td>\\n                                                <td class="two" id="i2">Subject</td>\\n                                                <td class="three" id="i3">From</td>\\n                                                <td class="four" id="i4">Date</td>\\n                                                <td class="five" id="i5"><img src="../static/images/attmain.png" style="height=14px;width:20px;"/></td>\\n                                                </tr>\\n                                                </table>\\n                                        </div>\\n\\n\\t\\t\\t\\t\\t<div id="divLostFound">\\n                                                <table class="table" id="bigtable_LostFound">\\n                                                <tr>\\n                                                <td class="one" id="i1"></td>\\n                                                <td class="two" id="i2">Subject</td>\\n                                                <td class="three" id="i3">From</td>\\n                                                <td class="four" id="i4">Date</td>\\n                                                <td class="five" id="i5"><img src="../static/images/attmain.png" style="height=14px;width:20px;"/></td>\\n                                                </tr>\\n                                                </table>\\n                                        </div>\\n\\n\\t\\t\\t\\t\\t<div id="divGeneral">\\n                                                <table class="table" id="bigtable_General">\\n                                                <tr>\\n                                                <td class="one" id="i1"></td>\\n                                                <td class="two" id="i2">Subject</td>\\n                                                <td class="three" id="i3">From</td>\\n                                                <td class="four" id="i4">Date</td>\\n                                                <td class="five" id="i5"><img src="../static/images/attmain.png" style="height=14px;width:20px;"/></td>\\n                                                </tr>\\n                                                </table>\\n                                        </div>\\n\\n\\t\\t\\t\\t</div>\\n\\n\\t\\t\\t\\t<div id="composer">\\n\\t\\t\\t\\t\\t<img id="close" src="\', escape=False)'
p98
sI38
S"response.write(URL('static','images/close.png'))"
p99
sI39
S'response.write(\'" width="20px" height="20px"></img>\\n\\t\\t\\t\\t\\t<!--<div id="sender">\\n\\t\\t\\t\\t\\t\\t<input type="submit" value="Send" id="sender"/>\\n\\t\\t\\t\\t\\t</div>-->\\n\\t\\t\\t\\t\\t<form>\\t\\n\\t\\t\\t\\t\\t\\t<p id="recvrp" class="formhead">To</p>\\n\\t\\t\\t\\t\\t\\t<input id="recvrinput" type="name" name="recvr" onkeyup="auto(event,1)" onkeydown="sendtodiv(event,1)"></input>\\n\\t\\t\\t\\t\\t\\t<div id="suggestions">\\t\\n\\t\\t\\t\\t\\t\\t</div>\\n\\t\\t\\t\\t\\t\\t<div id="recvr">\\n\\t\\t\\t\\t\\t\\t<ul id="receivers">\\n\\t\\t\\t\\t\\t\\t\\t\\n\\t\\t\\t\\t\\t\\t</ul>\\n\\t\\t\\t\\t\\t\\t</div>\\n\\t\\t\\t\\t\\t\\t<p id="tagp" class="formhead" >Tag</p>\\n\\t\\t\\t\\t\\t\\t<select class="dropdown">\\n\\t\\t\\t\\t\\t\\t\\t<option value="1">Academics</option>\\n\\t\\t\\t\\t\\t\\t\\t<option value="2">Sports</option>\\n\\t\\t\\t\\t\\t\\t\\t<option value="3">Events</option>\\n\\t\\t\\t\\t\\t\\t\\t<option value="4">Cultural</option>\\n\\t\\t\\t\\t\\t\\t\\t<option value="5">Urgent</option>\\n\\t\\t\\t\\t\\t\\t\\t<option value="6">Lost/Found</option>\\n\\t\\t\\t\\t\\t\\t\\t<option value="7">General</option>\\n\\t\\t\\t\\t\\t\\t\\t<option value="8"></option>\\n\\t\\t\\t\\t\\t\\t</select>\\n\\t\\t\\t\\t\\t\\t<p id="subp" class="formhead" >Subject</p>\\n\\t\\t\\t\\t\\t\\t<input id="sub" type="name" name="sub"></input>\\n\\t\\t\\t\\t\\t\\t<p id="msgp" class="formhead">Message</p>\\n\\t\\t\\t\\t\\t\\t<textarea id="msg" name="msg" cols="82.5" rows="20" ></textarea>\\n\\t\\t\\t\\t\\t</form>\\n\\t\\t\\t\\t\\t\', escape=False)'
p100
sI40
S'response.write(form)'
p101
sI41
S'response.write(\'\\n\\t\\t\\t\\t\\t<img src="\', escape=False)'
p102
sI42
S"response.write(URL('static', 'images/paperclip.png'))"
p103
sI43
S'response.write(\'" width="37px" height="36px" style="position:absolute;top:29.5%;left:25%"></img>\\n\\t\\t\\t\\t</div>\\n\\t\\t\\t\\t<div id="draftser">\\n                                        <table class="table" id="drafttable">\\n                                        <tr>\\n                                                <td class="one" id="i1"></td>\\n                                                <td class="two" id="i2">Subject</td>\\n                                                <td class="three" id="i3">Receivers</td>\\n                                                <td class="four" id="i4">Date</td>\\n                                                <td class="five" id="i5"><img src="../static/images/attmain.png" style="height=14px;width:20px;"/></td>\\n                                        </tr>\\n                                        </table>\\n                                </div>\\n\\t\\t\\t\\t<div id="composerD">\\n\\t\\t\\t\\t\\t<img id="closeD" onclick="closedraftmail()" src="\', escape=False)'
p104
sI44
S"response.write(URL('static','images/close.png'))"
p105
sI45
S'response.write(\'" width="20px" height="20px"></img>\\n                                        <div id="senderD" onclick="senddraftmail()">\\n                                                <p> Send </p>\\n                                        </div>\\n                                        <form>\\n                                                <p id="recvrpD" class="formhead">To</p>\\n                                                <input id="recvrinputD" type="name" name="recvr" onkeyup="auto(event,2)" onkeydown="sendtodiv(event,2)"></input>\\n                                                <div id="suggestionsD">\\n                                                </div>\\n                                                <div id="recvrD">\\n                                                <ul id="receiversD">\\n\\n                                                </ul>\\n                                                </div>\\n                                                <p id="tagpD" class="formhead" >Tag</p>\\n                                                <select class="dropdown">\\n                                                        <option value="1">Academics</option>\\n                                                        <option value="2">Sports</option>\\n                                                        <option value="3">Events</option>\\n                                                        <option value="4">Cultural</option>\\n                                                        <option value="5">Urgent</option>\\n                                                        <option value="6">Lost/Found</option>\\n                                                        <option value="7">General</option>\\n                                                        <option value="8"></option>\\n                                                </select>\\n                                                <p id="subpD" class="formhead" >Subject</p>\\n                                                <input id="subD" type="name" name="sub"></input>\\n                                                <p id="msgpD" class="formhead">Message</p>\\n                                                <textarea id="msgD" name="msg" cols="82.5" rows="20" ></textarea>\\n                                                <p id="attachpD" >Attachments</p>\\n                                                <input id="attachD" type="file"></input>\\n                                        </form>\\n\\t\\t\\t\\t</div>\\n\\t\\t\\t\\t<div id="senter">\\n                                        <table class="table" id="senttable">\\n                                        <tr>\\n                                                <td class="one" id="i1"></td>\\n                                                <td class="two" id="i2">Subject</td>\\n                                                <td class="three" id="i3">Receivers</td>\\n                                                <td class="four" id="i4">Date</td>\\n                                                <td class="five" id="i5"><img src="../static/images/attmain.png" style="height=14px;width:20px;"/></td>\\n                                        </tr>\\n                                        </table>\\n                                </div>\\n\\t\\t\\t\\t<div id="maildetails">\\n\\t\\t\\t\\t</div>\\n\\t\\t\\t\\t<div id="Sentmaildetails">\\n                                     <div id="Senttopdiv">\\n\\t\\t\\t\\t\\t    <img id="closeS" src="\', escape=False)'
p106
sI46
S"response.write(URL('static','images/close.png'))"
p107
sI47
S'response.write(\'" width="20px" height="20px"></img>\\n\\t\\t\\t\\t\\t    \\t<div id="Senttag">\\n\\t\\t\\t\\t\\t\\t\\t<p>Academics</p>\\n\\t\\t\\t\\t\\t    \\t</div>\\n                                            <div id="Sentsubjectdetails"><h2>Important meeting today</h2><p>To</p></div>\\n\\t\\t\\t\\t            <div id="Sentrecvr">\\n                                                <ul id="Sentrecvrlist">\\n                                                </ul>\\n                                             </div>\\n                                     </div>\\n                                     <div id="Sentmailcontent">\\n                                               There is an important meeting to be held in SH1.<br/>\\n                                                All UG1 students are requested to assemble at 5:00 p.m.<br/>\\n                                              Regards<br/>\\n                                        Appaji<br/>\\n                                     </div>\\n                            <!--         <div id="Sentdivider">\\n                                     </div>\\n                                     <div id="Sentattachdiv">\\n                                        Attachments come here!\\n                                     </div>-->\\n                                </div>\\n\\t\\t\\t</div>\\n\\t\\t</div>\\n\\t</div>\\n\\t<script>\\n\\t\\tip = "127.0.0.1";\\n\\t\\tport = "8000";\\n\\t\\tconn = "http";\\n\\n\\t\\tAcademics = {};\\n                Sports = {};\\n                Events = {};\\n                Cultural = {};\\n                Urgent = {};\\n                LostFound = {};\\n                General = {};\\n                other = {};\\n                BigTable = {};\\n\\t\\tgloballist = ["Academics","Sports","Events","Cultural","Urgent","LostFound","General","SentMails"];\\n\\t\\tvar flag = "Academics";\\n\\n\\t\\ta = document.getElementsByClassName("w2p_fw");\\n\\t\\ta[1].children[0].id = "sender"\\n\\t\\ta[1].children[0].value="Send"\\n\\t\\tvar activeelement = document.getElementById("tabs").children[0];\\n\\t\\tvar sa = document.getElementById("inboxme");\\n\\t\\tvar draftlist = {};\\n\\t\\tvar draftsubject = "";\\n\\t\\tvar draftmessage = "";\\n\\t\\tvar draftreceivers = {};\\n\\t\\tvar deletedraftlist = [];\\n\\t\\tvar deletesentlist = [];\\n\\t\\tvar completelist;\\n                var cuckoo;\\n\\t\\t\\n\\t\\tfunction makesideactive(e){\\n\\t\\t\\tb = document.getElementsByClassName("w2p_fw");\\n\\t\\t\\tb[0].children[0].value="";\\n\\t\\t}\\n\\t\\t\\n                function opendetails(e){\\n      \\t\\t          $("#inboxer").hide();\\n               \\t\\t var tmp=e.id.slice(-1);\\n              \\t\\t  var tag=e.id.slice(7,-1);\\n\\t\\t\\tconsole.log(tag);\\n       \\t\\t       tagjson=eval(tag);\\n\\t\\t\\tconsole.log(tagjson);\\n            \\t   \\t var div=document.getElementById("maildetails");\\n        \\t        div.style.display="block";\\n        \\n\\t                div.innerHTML="<div id=\\\\"topdiv\\\\"><div id=\\\\"subjectdetails\\\\"><h2>"+tagjson[tmp].sub+"</h2></div><div id=\\\\"fromdetails\\\\"><p>From:"+tagjson[tmp].send_id+"</p><p>Time:"+tagjson[tmp].sent_time+"</p><p>Date:"+tagjson[tmp].sent_date+"</p></div></div><div id=\\\\"mailcontent\\\\">"+tagjson[tmp].msg+"</div>";\\n                }\\n\\n\\t\\tfunction makeactive(e){\\n\\t\\t\\t activeelement.className = "tags";\\n\\t\\t\\t activeelement = e;\\n\\t\\t\\t e.className = "activemy";\\n\\t\\t\\t \\n\\t\\t}\\n\\t\\tfunction putinto(el,p)\\n\\t\\t{\\n\\t\\t\\tif( p == 1 )\\n\\t\\t\\t\\tend = "";\\n\\t\\t\\telse\\n\\t\\t\\t\\tend = "D";\\n\\n\\t\\t\\t\\t var id = el.innerHTML;\\n         \\n                                        var listitem = document.createElement("LI");\\n                                        listitem.className = "rev";\\n                                        listitem.onclick = function() { document.getElementById("receivers"+end).removeChild(this); }\\n                                        var text = document.createTextNode(id);\\n                                        listitem.appendChild(text);\\n                                        ulist = document.getElementById("receivers"+end);\\n                                        ulist.appendChild(listitem);\\n                                        document.getElementById("recvrinput"+end).value = "";\\n                           \\n\\t\\n\\t\\t}\\n\\t\\tfunction animatemsg(txt)\\n\\t\\t{\\n\\t\\t\\tvar divid = document.getElementById("layer");\\n\\t\\t\\tdivid.id = "layeractive";\\n\\t\\t\\tmsgdiv = document.getElementById("message").children[0];\\n\\t\\t\\tmsgdiv.innerHTML = txt;\\n\\t\\t\\t$("#message").fadeIn("slow");\\n\\t\\t\\tsetTimeout(function(){ $("#message").fadeOut("fast");document.getElementById("layeractive").id = "layer";},1200);\\n\\t\\t}\\n\\t\\t\\n\\t\\tfunction gettagcount()\\n\\t\\t{\\n\\t\\t\\tvar xml = new XMLHttpRequest();\\n\\t\\t\\tvar name = document.getElementById("idofuser").innerHTML;\\n\\t\\t\\txml.onreadystatechange = function()\\n\\t\\t\\t{\\n\\t\\t\\t\\tif(xml.readyState == 4 && xml.status == 200)\\n\\t\\t\\t\\t{\\n\\t\\t\\t\\t\\tnewobj = JSON.parse(xml.responseText);\\n\\t\\t\\t\\t\\tdocument.getElementById("c1").children[0].innerHTML = newobj["Academics"]\\t\\n\\t\\t\\t\\t\\tdocument.getElementById("c2").children[0].innerHTML = newobj["Sports"]\\n\\t\\t\\t\\t\\tdocument.getElementById("c3").children[0].innerHTML = newobj["Events"]\\n\\t\\t\\t\\t\\tdocument.getElementById("c4").children[0].innerHTML = newobj["Cultural"]\\n\\t\\t\\t\\t\\tdocument.getElementById("c5").children[0].innerHTML = newobj["Urgent"]\\n\\t\\t\\t\\t\\tdocument.getElementById("c6").children[0].innerHTML = newobj["Lost/Found"]\\n\\t\\t\\t\\t\\tdocument.getElementById("c7").children[0].innerHTML = newobj["General"]\\n\\t\\t\\t\\t}\\n\\t\\t\\t}\\n\\t\\t\\txml.open("GET", conn+"://"+ip+":"+port+"/ITWSII_StudentsMail/main/count?name="+name,true);\\n\\t\\t\\txml.send();\\n\\t\\t}\\n\\t\\t\\n\\t\\tdocument.getElementById("search").onkeyup = function (){\\n\\t\\t\\t\\n\\t\\t\\tvar xml = new XMLHttpRequest();\\n\\t\\t\\ttext = document.getElementById("search").value;\\n\\t\\t\\tname = document.getElementById("idofuser").innerHTML;\\n\\t\\t\\tvar parameters = "value="+text+"&name="+name;\\n\\t\\t\\txml.onreadystatechange = function()\\n\\t\\t\\t{\\n\\t\\t\\t\\tif(xml.readyState == 4 && xml.status == 200)\\n\\t\\t\\t\\t{\\n\\t\\t\\t\\t\\tobj = JSON.parse(xml.responseText);\\n\\t\\t\\t\\t\\tvar p = document.getElementById("table_search");\\n\\t\\t\\t\\t\\tfor(i=p.rows.length - 1;i>0;--i)\\n\\t\\t\\t\\t\\t{\\n\\t\\t\\t\\t\\t\\tp.deleteRow(i);\\n\\t\\t\\t\\t\\t}\\n\\t\\t\\t\\t\\tif (obj != "None")\\n\\t\\t\\t\\t\\t{\\n\\t\\t\\t\\t\\t\\tvar rows = ""\\n\\t\\t\\t\\t\\t\\t$.each(obj, function(){\\n\\t\\t\\t\\t\\t\\t\\trows += "<tr><td class=\\\'one\\\'><input type=\\\'checkbox\\\' id=\\\'radio_search\\\'></td><td class=\\\'two\\\'>"+this.subject+"</td><td class=\\\'six\\\'>"+this.tag+"</td><td class=\\\'three\\\'>"+this.sender+"</td><td class=\\\'four\\\'>"+this.sent_date+"</td><td class=\\\'five\\\'><img src=\\\'../static/images/paperclip.png\\\' style=\\\'height:14px;width:28px;\\\'/></td></tr>";\\n\\t\\t\\t\\t\\t\\t})\\n\\t\\t\\t\\t\\t\\t$(rows).appendTo("#table_search");\\n\\t\\t\\t\\t\\t\\t$("#searchbox").show();\\n\\t\\t\\t\\t\\t\\t$("#bigtable_"+flag).hide();\\n\\t\\t\\t\\t\\t\\tdivname =  sa.id.slice(0,-2);\\n\\t\\t\\t\\t\\t\\t$("#"+divname+"er").hide();\\n\\t\\t\\t\\t\\t}\\n\\t\\t\\t\\t\\telse\\n\\t\\t\\t\\t\\t{\\n\\t\\t\\t\\t\\t\\t$("#searchbox").hide();\\n\\t\\t\\t\\t\\t\\tdivname =  sa.id.slice(0,-2);\\n\\t\\t\\t\\t\\t\\tif( divname == "inbox" )\\n\\t\\t\\t\\t\\t\\t{\\n\\t\\t\\t\\t\\t\\t\\t$("#inboxer").show();\\n\\t\\t\\t\\t\\t\\t\\t$("#bigtable_"+flag).show();\\n\\t\\t\\t\\t\\t\\t}\\n\\t\\t\\t\\t\\t\\telse\\n\\t\\t\\t\\t\\t\\t\\t$("#"+divname+"er").show();\\n\\t\\t\\t\\t\\t\\t\\n\\t\\t\\t\\t\\t}\\n\\t\\t\\t\\t}\\n\\t\\t\\t}\\n\\t\\t\\txml.open("GET",conn+"://"+ip+":"+port+"/ITWSII_StudentsMail/main/search?"+parameters, true);\\n\\t\\t\\txml.send();\\n\\t\\t}\\n\\t\\n\\t\\tfunction getuser(){\\n                                var xhr = new XMLHttpRequest();\\n                                xhr.open("GET",conn+"://"+ip+":"+port+"/ITWSII_StudentsMail/main/getuser",true);\\n                                xhr.send();\\n        \\n                                xhr.onreadystatechange = function(){\\n                                        if( xhr.readyState == 4 && xhr.status == 200 )\\n                                        {                \\n\\t\\t\\t\\t\\t\\t\\tvar k = xhr.responseText;\\n\\t\\t\\t\\t\\t\\t\\tgettagcount();\\t\\n\\t\\t\\t\\t\\t}\\n                                \\n\\t\\t\\t\\t}\\n                        \\n                        }\\n\\t\\tfunction sendtodiv(e,p)\\n\\t\\t{\\n\\t\\t\\tif( p == 1 )\\n\\t\\t\\t\\tend = "";\\n\\t\\t\\telse\\n\\t\\t\\t\\tend = "D";\\n\\t\\t\\tif ( e.keyCode == 13 )\\n\\t\\t\\t{\\t\\n\\t\\t\\t\\tvar id = document.getElementById("recvrinput"+end).value;\\n\\t\\t\\t\\tif ( id != "" )\\n\\t\\t\\t\\t{\\n\\t\\t\\t\\t\\tvar listitem = document.createElement("LI");\\n\\t\\t\\t\\t\\tlistitem.className = "rev";\\n\\t\\t\\t\\t\\tlistitem.onclick = function() { document.getElementById("receivers"+end).removeChild(this); }\\n\\t\\t\\t\\t\\tvar id = document.getElementById("recvrinput"+end).value;\\n\\t\\t\\t\\t\\tvar text = document.createTextNode(id);\\n\\t\\t\\t\\t\\tlistitem.appendChild(text);\\n\\t\\t\\t\\t\\tulist = document.getElementById("receivers"+end);\\n\\t\\t\\t\\t\\tulist.appendChild(listitem);\\n\\t\\t\\t\\t\\tdocument.getElementById("recvrinput"+end).value = "";\\n\\t\\t\\t\\t}\\n\\t\\t\\t}\\n\\t\\t}\\n\\t\\tfunction auto(e,p)\\n\\t\\t{\\n\\t\\t\\t\\tif( p == 1 )\\n\\t\\t\\t\\t\\tend = "";\\n\\t\\t\\t\\telse\\n\\t\\t\\t\\t\\tend = "D";\\n\\t\\t\\t\\tvar xhr = new XMLHttpRequest();\\n\\t\\t\\t\\txhr.open("GET",conn+"://"+ip+":"+port+"/ITWSII_StudentsMail/main/getid?id="+document.getElementById("recvrinput"+end).value,true);\\n\\t\\t\\t\\txhr.send()\\n\\t\\t\\t\\t\\n\\t\\t\\t\\txhr.onreadystatechange = function()\\n\\t\\t\\t\\t{\\n\\t\\t\\t\\t\\tif( xhr.readyState == 4 && xhr.status == 200 )\\n\\t\\t\\t\\t\\t{\\n\\t\\t\\t\\t\\t\\tresponse = xhr.responseText;\\n\\t\\t\\t\\t\\t\\tk = response.split(" ");\\n\\t\\t\\t\\t\\t\\tdiv = document.getElementById("suggestions"+end);\\n\\t\\t\\t\\t\\t\\tj = div.children.length;\\n\\t\\t\\t\\t\\t\\tfor( k = j-1 ; k>=0; k-- )\\n\\t\\t\\t\\t\\t\\t\\tdiv.removeChild(div.children[k]);\\n\\t\\t\\t\\t\\t\\t\\n\\t\\t\\t\\t\\t\\tif( document.getElementById("recvrinput"+end).value != "" )\\n\\t\\t\\t\\t\\t\\t{\\n\\t\\t\\t\\t\\t\\t\\tif( response.length != 0 )\\n\\t\\t\\t\\t\\t\\t\\t{\\t\\n\\t\\t\\t\\t\\t\\t\\t\\t\\tk = response.split(" ");\\n\\t\\t\\t\\t\\t\\t\\t\\t\\tfor(i=0;i<k.length;i++)\\n\\t\\t\\t\\t\\t\\t\\t\\t\\t{\\n\\t\\t\\t\\t\\t\\t\\t\\t\\t\\tvar sug = document.createElement("P");\\n\\t\\t\\t\\t\\t\\t\\t\\t\\t\\tvar txt = document.createTextNode(k[i]);\\n\\t\\t\\t\\t\\t\\t\\t\\t\\t\\tsug.appendChild(txt);\\n\\t\\t\\t\\t\\t\\t\\t\\t\\t\\tsug.onclick = function(){ putinto(this,p);  document.getElementById("suggestions"+end).style.visibility = "hidden"; };\\n\\t\\t\\t\\t\\t\\t\\t\\t\\t\\tdiv.appendChild(sug);\\n\\t\\t\\t\\t\\t\\t\\t\\t\\t\\tdiv.style.visibility="visible";\\n\\t\\t\\t\\t\\t\\t\\t\\t\\t}\\n\\t\\t\\t\\t\\t\\t\\t}\\n\\t\\t\\t\\t\\t\\t}\\n\\t\\t\\t\\t\\t\\telse\\n\\t\\t\\t\\t\\t\\t\\tdiv.style.visibility = "hidden";\\n\\t\\t\\t\\t\\t\\t\\t\\n\\t\\t\\t\\t\\t}\\n\\t\\t\\t\\t}\\n\\t\\t}\\n\\t\\tfunction logout(){\\n                                window.location.href = conn+"://"+ip+":"+port+"/ITWSII_StudentsMail/main/loginmy?logout=1"\\n                        }\\n\\t\\tfunction showdraftmessage(e)\\n\\t\\t{\\n\\t\\t\\t\\t  k = e.id;\\n                               \\t  k = k.slice(3,k.length);\\n\\t\\t\\t\\t  document.getElementById("draftdelete").style.display = "none";\\n\\t\\n\\t\\t\\t\\t\\t document.getElementById("subD").value = ""; \\n                                        document.getElementById("msgD").value = "";\\n                                        doko = document.getElementById("recvrD");\\n                                        doko.removeChild(doko.children[0]);\\n                                        koko = document.createElement("UL");\\n                                        koko.id = "receiversD";\\n                                        doko.appendChild(koko);\\n\\n\\t\\t\\t\\t  for ( i=1 ; ; i++ )\\n                                  {\\n                                         if( typeof draftlist[i] != "undefined" )\\n                                         {\\n\\t\\t\\t\\t\\t\\tif ( i == k )\\n\\t\\t\\t\\t\\t\\t{\\n                                                        p = draftlist[i]["receivers"];\\n                                                        for( x = 0;;x++)\\n                                                        {\\n                                                                if ( typeof p[x] == "undefined" )\\n                               \\t\\t\\t\\t\\t\\tbreak;\\n\\t\\t\\t\\t\\t\\t\\t}\\n\\t\\t//\\t\\t\\t\\t\\tx is len;\\n\\t\\t\\t\\t\\n\\t\\t\\t\\t\\t\\t       for( toko= 0; toko < x ; toko ++ )\\n\\t\\t\\t\\t\\t\\t       {\\n\\t\\t\\t\\t\\t\\t\\t\\t\\t  var listitem = document.createElement("LI");\\n                                 \\t\\t\\t\\t          listitem.className = "rev";\\n\\t\\t\\t\\t\\t\\t\\t\\t\\t\\tid = p[toko];\\n                                       \\t\\t\\t\\t\\t\\t listitem.onclick = function() { document.getElementById("receiversD").removeChild(this); }\\n                                     \\t\\t\\t\\t\\t\\t   var text = document.createTextNode(id);\\n                                 \\t\\t\\t\\t\\t       listitem.appendChild(text);\\n                                    \\t\\t\\t\\t\\t    ulist = document.getElementById("receiversD");\\n                                 \\t\\t\\t\\t\\t       ulist.appendChild(listitem);\\n                                   \\t\\t\\t\\t\\t     document.getElementById("recvrinputD").value = "";\\n\\t\\t\\t\\t\\t\\t\\t}\\n                                \\n                  \\t\\t\\t              var tagel = document.getElementsByTagName("select");\\n                            \\t\\t\\t    var tag = tagel[0].options[tagel[0].selectedIndex].innerHTML;\\n                                 \\n\\t\\t\\t\\t\\t\\t\\tdocument.getElementById("closeD").style.display = "block";\\n\\t\\t\\t\\t\\t\\t\\tdocument.getElementById("senderD").style.display = "block";\\n\\t\\t\\t\\t\\t\\t\\tdraftsubject = draftlist[i]["subject"];\\n\\t\\t\\t\\t\\t\\t\\tdraftmessage = draftlist[i]["mail_message"];\\n\\t\\t\\t\\t\\t\\t\\tdraftreceivers = draftlist[i]["receivers"];\\n\\t\\t\\t\\t\\t\\t\\tdocument.getElementById("composerD").style.display = "block";\\n\\t\\t\\t\\t\\t\\t\\tdocument.getElementById("subD").value = draftlist[i]["subject"];\\n                                                        document.getElementById("msgD").value = draftlist[i]["mail_message"];\\n\\n\\t\\t\\t\\t\\t\\t\\tdocument.getElementById("draftser").style.display = "none";   \\n\\t\\t\\t\\t\\t\\t}\\n\\t\\n\\t\\t\\t\\t\\t}\\n\\t\\t\\t\\t\\telse\\n\\t\\t\\t\\t\\t\\tbreak;\\n\\t\\t      \\t\\t}\\n\\t\\t}\\n\\t\\tfunction senddraftmail(){\\n\\n\\t\\t\\t\\tdocument.getElementById("draftdelete").style.display = "none";\\n\\t\\t\\t\\tvar xhr = new XMLHttpRequest();\\n                                var xp = new XMLHttpRequest();\\n                                reclist = {};\\n                                var el = document.getElementById("receiversD");\\n                                list = el.children;\\n                                for( k = 0 ; k < list.length ; k++ )\\n                                        reclist[k] = list[k].innerHTML;\\n                                \\n                                details = {}\\n                                details["receivers"] = JSON.stringify(reclist);\\n                                \\n                                var tagel = document.getElementsByTagName("select");\\n                                var tag = tagel[0].options[tagel[0].selectedIndex].innerHTML;\\n                                \\n                                details["tag"] = tag;\\n                                var sub = document.getElementById("subD").value;\\n                                details["sub"] = sub;\\n                                var msg = document.getElementById("msgD").value;\\n                                details["msg"] = msg;\\n                                var send_id = document.getElementById("idofuser").innerHTML;\\n                                details["send_id"] = send_id;\\n                                var sender_name = document.getElementById("user").innerHTML;\\n                                details["sender_name"] = sender_name;\\n               \\t\\t\\tdraftdetails = {};\\t\\t\\n\\t\\t\\t\\tdraftdetails["send_id"] = send_id;\\n\\t\\t\\t\\tdraftdetails["sender_name"] = sender_name;\\n\\t\\t\\t\\tdraftdetails["sub"] = draftsubject;\\n\\t\\t\\t\\tdraftdetails["message"] = draftmessage;\\n\\t\\t\\t\\tdraftdetails["receivers"] = JSON.stringify(draftreceivers);\\n\\n                                if( tag != "" )\\n                                {\\n\\t\\n                                        xhr.open("POST",conn+"://"+ip+":"+port+"/ITWSII_StudentsMail/main/send",true);\\n                                        xp.open("POST",conn+"://"+ip+":"+port+"/ITWSII_StudentsMail/main/checkdrafts",true);\\n                                        xhr.setRequestHeader("Content-Type", "application/json;charset=UTF-8");\\n                                        xp.setRequestHeader("Content-Type", "application/json;charset=UTF-8");\\n                                        xhr.send(JSON.stringify(details));\\n                                        xp.send(JSON.stringify(draftdetails));\\n\\n                                        xhr.onreadystatechange = function(){\\n                                                \\n                                                if( xhr.readyState == 4 && xhr.status == 200 )\\n                                                {\\n                                                        animatemsg(xhr.responseText);\\n                                                \\tdocument.getElementById("composerD").style.display = "none";\\n                                                        document.getElementById("draftser").style.display = "block";\\n\\t\\t\\t\\t\\t\\t\\tdocument.getElementById("draftdelete").style.display = "block";   \\n\\t\\t\\t\\t\\t\\t\\trefreshdraftmails();\\n\\t\\t\\t\\t\\t\\t}\\n                                        }\\n                                        xp.onreadystatechange = function(){\\n                                                if ( xp.readyState == 4 && xp.status == 200 )\\n                                                        console.log(xp.responseText);\\n                                        }\\n                                }\\n                                else\\n                                {\\n                                        if( id == "" )\\n                                                animatemsg("Receivers ID field can not be left empty");\\n                                }\\n\\t\\t\\t\\t\\t\\n\\t\\t}\\n\\t\\tfunction closedraftmail()\\n\\t\\t{\\n\\t\\t\\t\\t  var xhr = new XMLHttpRequest();\\n                                reclist = {};\\n                                var el = document.getElementById("receiversD");\\n                                list = el.children;\\n                                for( k = 0 ; k < list.length ; k++ )\\n                                        reclist[k] = list[k].innerHTML;\\n                                \\n                                details = {};\\n                                if( reclist.length != 0 )\\n                                {\\n                                       details["receivers"] = JSON.stringify(reclist);\\n                                \\n                                       var tagel = document.getElementsByTagName("select");\\n                                       var tag = tagel[0].options[tagel[0].selectedIndex].innerHTML;\\n                                \\n                                        details["tag"] = tag;\\n                                        var sub = document.getElementById("subD").value;\\n                                        details["sub"] = sub;\\n                                        var msg = document.getElementById("msgD").value;\\n                                        details["msg"] = msg;\\n                                        if( sub != "" && msg != "" )\\n                                        {\\n                                                     var send_id = document.getElementById("idofuser").innerHTML;\\n                                                             details["send_id"] = send_id;\\n                                                     var sender_name = document.getElementById("user").innerHTML;\\n                                                     details["sender_name"] = sender_name;\\n       \\n                                                     xhr.open("POST",conn+"://"+ip+":"+port+"/ITWSII_StudentsMail/main/drafts",true);\\n                                                     xhr.setRequestHeader("Content-Type", "application/json;charset=UTF-8");\\n                                           \\t     xhr.send(JSON.stringify(details));\\n                                              \\t//\\tconsole.log(details);\\n\\t\\t\\t\\t\\t\\t       xhr.onreadystatechange = function(){\\n                                                \\n                                                                     if( xhr.readyState == 4 && xhr.status == 200 )\\n                                                                     {\\n\\t\\t\\t\\t\\t\\t\\t\\t\\t\\tif ( xhr.responseText != "already" )\\n\\t\\t\\t\\t\\t\\t\\t\\t\\t\\t{\\n\\t\\t\\t\\t\\t\\t\\t\\t\\t\\t\\tanimatemsg("Message saved to drafts!");\\n\\t\\t\\t\\t\\t\\t\\t\\t\\t\\t\\trefreshdraftmails();\\n                                                      \\t\\t\\t\\t}\\n                                        \\t\\t\\t     }\\n                        \\t\\t\\t\\t}\\n                                \\t}\\n\\t\\t\\t\\t}\\n\\t\\t\\t\\tdocument.getElementById("closeD").style.display = "none";\\n                                document.getElementById("senderD").style.display = "none";\\n\\t\\t\\t\\tdocument.getElementById("composerD").style.display = "none";\\n                                document.getElementById("draftser").style.display = "block";   \\n\\t\\t\\t\\tdocument.getElementById("draftdelete").style.display = "block";\\n\\t\\t}\\n\\t\\tfunction refreshdraftmails()\\n\\t\\t{\\n\\t\\t\\t\\t\\tdraftlist = {}; \\n                                        var xp = new XMLHttpRequest();\\n                                \\n                                        xp.open("GET",conn+"://"+ip+":"+port+"/ITWSII_StudentsMail/main/getdrafts?email="+document.getElementById("idofuser").innerHTML,true);\\n                                        xp.send();\\n                                \\n                                        l = document.getElementById("draftser");\\n                                        l.removeChild(l.children[0]);\\n                                        table = document.createElement("TABLE");\\n                                        table.id = "drafttable";\\n                                        table.className = "table";\\n                                        l.appendChild(table);\\n                                        \\n\\t\\t\\t\\t\\t $("#drafttable").append("<tr><td class=\\\'one\\\' id=\\\'i1\\\'></td><td class=\\\'two\\\' id=\\\'i2\\\'>Subject</td><td class=\\\'three\\\' id=\\\'i3\\\'>Receivers</td><td class=\\\'four\\\' id=\\\'i4\\\'>Date</td><td class=\\\'five\\\' id=\\\'i5\\\'><img src=\\\'../static/images/attmain.png\\\' height=\\\'14px\\\' width=\\\'20px\\\'/></td></tr>");\\n\\n\\n                                        xp.onreadystatechange = function()\\n                                        {\\n                                                if( xp.readyState == 4 && xp.status == 200 )\\n                                                {\\n                                                        draftlist = JSON.parse(xp.responseText);\\n                                                        for ( i=1 ; ; i++ )\\n                                                        {\\n                                                                if( typeof draftlist[i] != "undefined" )\\n                                                                {\\n                                                                        p = draftlist[i]["receivers"];\\n                                                                        for( k = 0;;k++)\\n                                                                        {\\n                                                                                if ( typeof p[k] == "undefined" )\\n                                                                                        break;\\n                                                                        }\\n\\t\\t\\t\\t\\t\\t\\t\\t\\t$("#drafttable").append("<tr><td class=\\\'one\\\'><input onclick=\\\'selectdelmails(this,2)\\\' type=\\\'checkbox\\\' name=\\\'radiog_lite\\\' id=\\\'radio\\\' class=\\\'css-checkbox\\\'></td><td class=\\\'two\\\' onclick=\\\'showdraftmessage(this)\\\' id=\\\'msg"+i+"\\\'><label class=\\\'css-label\\\'>"+draftlist[i][\\\'subject\\\']+"</label></td><td class=\\\'three\\\'>"+k+"</td><td class=\\\'four\\\'>"+draftlist[i][\\\'made_date\\\']+"</td><td class=\\\'five\\\'><img src=\\\'../static/images/paperclip.png\\\' height=\\\'14px\\\' width=\\\'28px\\\'></img></tr>");\\n                                                                \\n       \\t                                                        }\\n                                                                else if( typeof draftlist[i] == "undefined" )\\n                                                                       break;\\n\\n                                                        }\\n\\t\\t\\t\\t\\t\\t}\\n\\t\\t\\t\\t\\t}\\n\\t\\t}\\n\\t\\tfunction refreshsentmails()\\n\\t\\t{\\n\\t\\t\\t\\tvar xhr = new XMLHttpRequest();\\n                                xhr.open("GET",conn+"://"+ip+":"+port+"/ITWSII_StudentsMail/main/sentmails?email="+document.getElementById("idofuser").innerHTML,true);\\n                                xhr.send();\\n                        \\n                                l = document.getElementById("senter");\\n                                l.removeChild(l.children[0]);\\n                                table = document.createElement("TABLE");\\n                                table.id = "senttable";\\n                                table.className = "table";\\n                                l.appendChild(table);\\n                                        \\n                                $("#senttable").append("<tr><td class=\\\'one\\\' id=\\\'i1\\\'></td><td class=\\\'two\\\' id=\\\'i2\\\'>Subject</td><td class=\\\'three\\\' id=\\\'i3\\\'>Receivers</td><td class=\\\'four\\\' id=\\\'i4\\\'>Date</td><td class=\\\'five\\\' id=\\\'i5\\\'><img src=\\\'../static/images/attmain.png\\\' height=\\\'14px\\\' width=\\\'20px\\\'/></td></tr>");\\n\\n                                xhr.onreadystatechange = function(){\\n                                        \\n                                                if( xhr.readyState == 4 && xhr.status == 200 )\\n                                                {\\n                                                        completelist = JSON.parse(xhr.responseText);\\n                                                        for( i in completelist )\\n                                                        {\\n                                                                k = completelist[i]["receivers"].split(" ");\\n                                                                console.log(k);\\n                                                                $("#senttable").append("<tr><td class=\\\'one\\\'><input onclick=\\\'selectdelmails(this,1)\\\' type=\\\'checkbox\\\' name=\\\'radiog_lite\\\' id=\\\'radio\\\' class=\\\'css-checkbox\\\'></td><td class=\\\'two\\\' onclick=\\\'showsentmessage(this)\\\' id=\\\'sent"+i+"\\\'><label class=\\\'css-label\\\'>"+completelist[i]["subject"]+"</label></td><td class=\\\'three\\\'>"+(k.length-1)+"</td><td class=\\\'four\\\'>"+completelist[i]["sent_date"]+"</td><td class=\\\'five\\\'><img src=\\\'../static/images/paperclip.png\\\' height=\\\'14px\\\' width=\\\'28px\\\'></img></tr>");\\n                                                        }\\n                                                }       \\n\\t\\t\\t\\t}\\n\\t\\t\\t\\tgettagcount();\\n\\t\\t}\\n\\t\\tfunction deletethesemails()\\n\\t\\t{\\n\\t\\t\\tdeleter = {};\\n\\t\\t\\tdivname =  sa.id.slice(0,-2);\\n\\t\\t\\tif( divname == "drafts" )\\n\\t\\t\\t{\\n\\t\\t\\t\\tvarname = deletedraftlist;\\n\\t\\t\\t\\twhichlist = draftlist;\\n\\t\\t\\t\\tslicewhat = 3;\\n\\t\\t\\t}\\n\\t\\t\\telse if( divname == "sent")\\n\\t\\t\\t{\\t\\n\\t\\t\\t\\tvarname = deletesentlist;\\n\\t\\t\\t\\twhichlist = completelist;\\n\\t\\t\\t\\tslicewhat = 4;\\n\\t\\t\\t}\\n\\t\\t\\tfor(i=0 ; i< varname.length ; i++ )\\n\\t\\t\\t{\\n\\t\\t\\t\\tidofmsg = varname[i].slice(slicewhat,varname[i].length);\\n\\t\\t\\t\\tdeleter[i] = JSON.stringify(whichlist[idofmsg]);\\n\\t\\t\\t}\\n\\t\\t\\tconsole.log(JSON.stringify(deleter));\\n\\t\\n\\t\\t\\tvar xhr = new XMLHttpRequest();\\n\\t\\t\\txhr.open("POST",conn+"://"+ip+":"+port+"/ITWSII_StudentsMail/main/delete"+divname,true);\\n\\t\\t\\txhr.setRequestHeader("Content-Type","application/json;charset=UTF-8");\\n\\t\\t\\txhr.send(JSON.stringify(deleter));\\n\\t\\t\\n\\t\\t\\txhr.onreadystatechange = function()\\n\\t\\t\\t{\\n\\t\\t\\t\\tif( xhr.readyState == 4 && xhr.status == 200 )\\n\\t\\t\\t\\t{\\tanimatemsg(xhr.responseText);\\n\\t\\t\\t\\t\\tif( divname == "sent" )\\n\\t\\t\\t\\t\\t{\\n\\t\\t\\t\\t\\t\\trefreshsentmails();\\n\\t\\t\\t\\t\\t\\tdeletesentlist = [];\\n\\t\\t\\t\\t\\t}\\n\\t\\t\\t\\t\\telse if( divname == "drafts" )\\n\\t\\t\\t\\t\\t{\\trefreshdraftmails();\\n\\t\\t\\t\\t\\t\\tdeletedraftlist = [];\\n\\t\\t\\t\\t\\t}\\n\\t\\t\\t\\t}\\n\\t\\t\\t}\\n\\t\\t}\\n\\t\\tfunction selectdelmails(e,pizza)\\n\\t\\t{\\n\\t\\t\\t\\n\\t\\t\\tid = e.parentNode.parentNode.children[1].id;\\n\\t\\t\\tif ( e.checked == true )\\n\\t\\t\\t{\\n\\t\\t\\t\\te.parentNode.className="selected";\\n\\t\\t\\t\\tif( pizza == 1 )\\n\\t\\t\\t\\t\\tdeletesentlist.push(id);\\n\\t\\t\\t\\telse if(pizza == 2 )\\n\\t\\t\\t\\t\\tdeletedraftlist.push(id);\\t\\t\\t\\n\\t\\t\\t}\\n\\t\\t\\telse\\n\\t\\t\\t{\\n\\t\\t\\t\\tk = [];\\n\\t\\t\\t\\tif( pizza == 1 )\\n\\t\\t\\t\\t{\\n\\t\\t\\t\\t\\te.parentNode.className = "original";\\n\\t\\t\\t\\t\\tdeletesentlist.filter(function(idd) { if( idd != id ) { k.push(idd) } });\\n\\t\\t\\t\\t\\tdeletedraftlist = k;\\n\\t\\t\\t\\t}\\n\\t\\t\\t\\telse if(pizza == 2 )\\n\\t\\t\\t\\t{\\n\\t\\t\\t\\t\\te.parentNode.className = "original";\\n\\t\\t\\t\\t\\tdeletedraftlist.filter(function(idd) { if( idd != id ) { k.push(idd) } });\\n\\t\\t\\t\\t\\tdeletesentlist = k;\\n\\t\\t\\t\\t}\\n\\t\\t\\t}\\n\\t\\t}\\n\\t\\tfunction showsentmessage(e)\\n\\t\\t{\\n\\n\\t\\t\\tpopop = e.id.slice(4,e.id.length);\\n\\t\\t\\tdocument.getElementById("senter").style.display = "none";\\n\\t\\t\\tdocument.getElementById("Sentmaildetails").style.display = "block";\\n\\t\\t\\tmail = completelist[popop];\\n\\t\\t\\t\\n\\t\\t\\t doko = document.getElementById("Sentrecvr");\\n                         doko.removeChild(doko.children[0]);\\n                         koko = document.createElement("UL");\\n                         koko.id = "Sentrecvrlist";\\n                         doko.appendChild(koko);\\n\\t\\t\\t\\n\\t\\t\\tk = completelist[popop]["receivers"].split(" ");\\n\\t\\t\\tfor(i=0;i<k.length;i++)\\n\\t\\t\\t{\\n\\t\\t\\t\\tif( k[i] != "" )\\n\\t\\t\\t\\t{\\n\\t\\t\\t\\tvar listitem = document.createElement("LI");\\n       \\t\\t                 listitem.className = "rev";\\n                 \\t       var text = document.createTextNode(k[i]);\\n                \\t        listitem.appendChild(text);\\n               \\t\\t         ulist = document.getElementById("Sentrecvrlist");\\n                        \\tulist.appendChild(listitem);\\n\\t\\t\\t\\t}\\n\\t\\t\\t}\\n\\t\\t\\tdocument.getElementById("Senttag").children[0].innerHTML = mail["tag"];\\n\\t\\t\\tdocument.getElementById("Sentsubjectdetails").children[0].innerHTML = mail["subject"];\\n                        document.getElementById("Sentmailcontent").innerHTML = mail["mail_message"];\\n\\t\\t\\n\\t\\t}\\n\\t\\tfunction closesentmail()\\n\\t\\t{\\n\\t\\t\\tdocument.getElementById("senter").style.display = "block";\\n                        document.getElementById("sentview").style.display = "none";\\t\\t\\n\\t\\t}\\n\\t\\tfunction openinbox(e){\\n\\n\\t\\t\\t $("#inboxer").show();\\n\\t\\t\\t document.getElementById("search").value = "";\\n                         details=document.getElementById("maildetails")\\n                         details.style.display="none";\\n                         activeelement.className = "tags";\\n                         activeelement = e;\\n                         e.className = "activemy";\\n                         taginboxname = e.id.slice(4,e.id.length);\\n\\t\\t\\t flag = taginboxname;\\n\\t\\t              \\t\\t\\tvar div=document.getElementById("div"+taginboxname);\\n                                                div.removeChild(document.getElementById("bigtable_"+taginboxname));\\n                                                var table=document.createElement("TABLE");\\n\\t\\t\\t\\t\\t\\ttable.className = "table";\\n                                                table.id="bigtable_"+taginboxname;\\n                                                div.appendChild(table);\\n                                                appendfirstrow(taginboxname);\\n                                                reloadpage();\\n                                                for(i=0;i<globallist.length;i++)\\n                                                {\\n                                                        if( globallist[i] != taginboxname )\\n                                                                $("#bigtable_"+globallist[i]).hide();\\n                                                }\\n\\t\\t\\t\\t\\t\\t$("#searchbox").hide();\\n                                                $("#bigtable_"+taginboxname).show();\\n\\n                }\\n\\t\\tfunction appendtotable(tag, tmpobj, count)\\n                {\\n\\n                                $("#bigtable_"+tag).append("<tr><td class=\\\\"one\\\\"><input type=\\\\"checkbox\\\\" id=\\\\"radio"+tag+count+"\\\\"/></td><td class=\\\\"two\\\\" id=\\\\"subject"+tag+count+"\\\\"  onclick=\\\\"opendetails(this)\\\\"><label for=\\\\"radio"+tag+count+"\\\\">"+tmpobj.sub+"</label></td><td class=\\\\"three\\\\">"+tmpobj.send_id+"</td><td class=\\\\"four\\\\">"+tmpobj.sent_date+"</td><td class=\\\\"five\\\\"><img src=\\\\"../static/images/paperclip.png\\\\" style=\\\\"height=14px;width:28px\\\\"/></td></tr>");\\n                }\\n\\n               function appendfirstrow(tag)\\n               {\\n                                $("#bigtable_"+tag).append("<tr><td class=\\\\"one\\\\" id=\\\\"i1\\\\"></td><td class=\\\\"two\\\\" id=\\\\"i2\\\\">Subject</td><td class=\\\\"three\\\\" id=\\\\"i3\\\\">From</td><td class=\\\\"four\\\\" id=\\\\"i4\\\\">Date</td><td class=\\\\"five\\\\" id=\\\\"i5\\\\"><img src=\\\\"../static/images/attmain.png\\\\" style=\\\\"height=14px;width:20px;\\\\"/></td></tr>");\\n                                \\n\\n                }\\n\\t\\t\\t\\n\\t\\tfunction reloadpage()\\n                        {\\n\\t\\t\\t\\tgettagcount();\\n                                var xhr = new XMLHttpRequest();\\n                                var l = document.getElementById("idofuser").innerHTML;\\n                                xhr.open("GET",conn+"://"+ip+":"+port+"/ITWSII_StudentsMail/main/show?id="+l,true);\\n                                xhr.send();\\n\\n\\n                                xhr.onreadystatechange = function()\\n                                {\\n                                        if( xhr.readyState == 4 && xhr.status == 200 )\\n                                        {       \\n                                                Academics_count=1;\\n                                                Sports_count=1;\\n                                                Events_count=1;\\n                                                Cultural_count=1;\\n                                                Urgent_count=1;\\n                                                LostFound_count=1;\\n                                                General_count=1;\\n                                                other_count=1;\\n\\n                                                obj=JSON.parse(xhr.responseText);\\n                                                jQuery.each(obj, function(keyi, valuei) {\\n                                                            tmpobj = valuei;\\n                                                            jQuery.each(tmpobj,function(keyj,valuej){\\n                                                                    if(keyj=="tag"&&valuej=="Academics"){\\n                                                                                Academics[Academics_count]=valuei;\\n                                                                                        appendtotable("Academics", tmpobj, Academics_count);    \\n                                                                        Academics_count += 1;     \\n                                                                    }\\n                                                                    else if(keyj=="tag"&&valuej=="Sports"){\\n                                                                                Sports[Sports_count]=valuei;\\n                                                                                appendtotable("Sports", tmpobj, Sports_count);\\n                                                                                Sports_count += 1;\\n                                                                                }\\n                                                                    else if(keyj=="tag"&&valuej=="Events"){\\n                                                                                Events[Events_count]=valuei;\\n                                                                                appendtotable("Events", tmpobj, Events_count);\\n                                                                                Events_count += 1;\\n                                                                    }\\n\\t\\t\\t\\t\\t\\t\\t\\t    else if(keyj=="tag"&&valuej=="Cultural"){\\n                                                                                Cultural[Cultural_count]=valuei;\\n                                                                                appendtotable("Cultural", tmpobj, Cultural_count);\\n                                                                        Cultural_count += 1;\\n                                                                    }\\n                                                                    else if (keyj=="tag"&&valuej=="Urgent"){\\n                                                                        Urgent[Urgent_count]=valuei;\\n                                                                        appendtotable("Urgent", tmpobj, Urgent_count);\\n                                                                        Urgent_count += 1;\\n                                                                    }\\n                                                                    else if(keyj=="tag"&&valuej=="Lost/Found"){\\n                                                                                LostFound[LostFound_count]=valuei;\\n                                                                                appendtotable("LostFound", tmpobj, LostFound_count);\\n                                                                                LostFound_count += 1;\\n                                                                    }\\n                                                                    else if(keyj=="tag"&&valuej=="General"){\\n                                                                                General[General_count]=valuei;\\n                                                                                appendtotable("General", tmpobj, General_count);\\n                                                                                General_count += 1;\\n                                                                        }\\n                                                                        \\n\\n                                                                    });\\n\\n                                                            });\\n                                                }\\n                                        }\\n                        }\\n\\n\\t\\t$(document).ready(function()\\n\\t\\t{\\n\\t\\t\\tsa = document.getElementById("inboxme");\\t\\n\\t\\t\\t$("#searchbox").hide();\\n\\t\\t\\t$("#bigtable_Academics").show();\\n                        $("#bigtable_Sports").hide();\\n                        $("#bigtable_Events").hide();\\n                        $("#bigtable_Cultural").hide();\\n                        $("#bigtable_Urgent").hide();\\n                        $("#bigtable_LostFound").hide();\\n                        $("#bigtable_General").hide();\\n                        $("#bigtable_SentMails").hide();\\n                        $("#maildetails").hide()\\n                        reloadpage();\\n\\t \\t\\tshowinbox();\\n\\t\\t\\t\\t\\n\\t\\t\\tfunction savetodrafts(){\\n\\t\\n\\t\\t\\t\\tvar xhr = new XMLHttpRequest();\\n                                reclist = {};\\n                                var el = document.getElementById("receivers");\\n                                list = el.children;\\n                                for( k = 0 ; k < list.length ; k++ )\\n                                        reclist[k] = list[k].innerHTML;\\n                                \\n                                details = {};\\n\\t\\t\\t\\tif( reclist.length != 0 )\\n\\t\\t\\t\\t{\\n                         \\t       details["receivers"] = JSON.stringify(reclist);\\n                                \\n                       \\t               var tagel = document.getElementsByTagName("select");\\n                       \\t               var tag = tagel[0].options[tagel[0].selectedIndex].innerHTML;\\n                                \\n                        \\t        details["tag"] = tag;\\n                                \\tvar sub = document.getElementById("sub").value;\\n                 \\t                details["sub"] = sub;\\n                       \\t\\t        var msg = document.getElementById("msg").value;\\n                 \\t                details["msg"] = msg;\\n\\t\\t\\t\\t\\tif( sub != "" && msg != "" )\\n\\t\\t\\t\\t\\t{\\n           \\t        \\t                     var send_id = document.getElementById("idofuser").innerHTML;\\n                \\t    \\t        \\t             details["send_id"] = send_id;\\n                                    \\t\\t     var sender_name = document.getElementById("user").innerHTML;\\n                     \\t         \\t             details["sender_name"] = sender_name;\\n\\t\\t\\t\\t\\t\\t     \\t\\n\\t\\t\\t\\t\\t\\t     xhr.open("POST",conn+"://"+ip+":"+port+"/ITWSII_StudentsMail/main/drafts",true);\\n                              \\t\\t             xhr.setRequestHeader("Content-Type", "application/json;charset=UTF-8");\\n                               \\t\\t      \\t     xhr.send(JSON.stringify(details));\\n              \\t\\t                             xhr.onreadystatechange = function(){\\n                                                \\n                           \\t\\t\\t                     if( xhr.readyState == 4 && xhr.status == 200 )\\n                                            \\t\\t\\t     \\t       animatemsg(xhr.responseText);\\n                                                      }\\n                                        }\\n\\t\\t\\t\\n\\t\\t\\t\\t}\\n\\t\\t\\t}\\n\\t\\t\\t\\t\\n\\t\\t\\t$("#composeme").click(function(){\\n\\t\\t\\n\\t\\t\\t\\t document.getElementById("sub").value = ""; \\n                                        document.getElementById("msg").value = "";\\n                                        d = document.getElementById("recvr");\\n                                        d.removeChild(d.children[0]);\\n                                        k = document.createElement("UL");\\n                                        k.id = "receivers";\\n                                        d.appendChild(k);\\n\\n\\t\\t\\t\\tsa.className = "down";\\n                                e = document.getElementById("composeme");\\n                                divname =  sa.id.slice(0,-2);\\n\\t\\t\\t\\tif ( divname == "compose" )\\n                                {\\n\\t\\t\\t\\t\\t $("#close").fadeOut("fast");\\n                                                 $("#sender").fadeOut("fast"); \\n                                                 $("#composer").fadeOut("fast");\\n\\t\\n                                }\\n                        \\telse if( divname == "drafts" )\\n                                      $("#draftdelete").fadeOut("fast");\\n      \\t\\t\\t\\telse if( divname == "sent" )\\n\\t\\t\\t\\t      document.getElementById("sentview").style.display = "none";     \\n\\t\\t\\t\\telse if(divname == "inbox")\\n\\t\\t\\t\\t      document.getElementById("inboxer").style.display = "none";\\n \\n\\t\\t\\t\\t$("#"+divname+"er").fadeOut("fast");\\t\\t\\n                                e.className = "sideactive";\\n\\t\\t\\t\\tsa = e;\\n\\t\\t\\t\\t $("#close").fadeIn("slow");\\n                                 $("#sender").fadeIn("slow"); \\n                                 $("#composer").fadeIn("slow");\\n\\n\\n\\n\\t\\t\\t\\t});\\n\\t\\t\\t$("#close").click(function(){\\n\\t\\t\\t\\t\\n\\t\\t\\t\\t\\tsavetodrafts();\\n\\t\\t\\t\\t\\tsa.className = "down";\\n                                        e = document.getElementById("inboxme");\\n                                        $("#close").fadeOut("fast");\\n                                        $("#sender").fadeOut("fast"); \\n                                        $("#composer").fadeOut("fast");\\n                                        e.className = "sideactive";\\n                                        $("#inboxer").fadeIn("slow");\\n                                        sa = e;\\t\\n\\t\\t\\t\\t\\t$("#composer").fadeOut("fast");\\n\\t\\t\\t});\\n\\t\\t\\t$("#sender").click(function(){\\n                                var xhr = new XMLHttpRequest();\\n                            \\tvar xp = new XMLHttpRequest();\\n\\t\\t\\t        reclist = {};\\n\\t\\t\\t\\tvar el = document.getElementById("receivers");\\n\\t\\t\\t\\tlist = el.children;\\n\\t\\t\\t\\tif( list.length != 0 )\\n\\t\\t\\t\\t{\\n\\t\\t\\t\\tfor( k = 0 ; k < list.length ; k++ )\\n\\t\\t\\t\\t\\treclist[k] = list[k].innerHTML;\\n\\t\\t\\t\\t\\n\\t\\t\\t\\tdetails = {}\\n\\t\\t\\t\\tdetails["receivers"] = JSON.stringify(reclist);\\n\\t\\t\\t\\t\\n\\t\\t\\t\\tvar tagel = document.getElementsByTagName("select");\\n\\t\\t\\t\\tvar tag = tagel[0].options[tagel[0].selectedIndex].innerHTML;\\n\\t\\t\\t\\t\\n\\t\\t\\t\\tdetails["tag"] = tag;\\n\\t\\t\\t\\tvar sub = document.getElementById("sub").value;\\n\\t\\t\\t\\tdetails["sub"] = sub;\\n                                var msg = document.getElementById("msg").value;\\n\\t\\t\\t\\tdetails["msg"] = msg;\\n                                var send_id = document.getElementById("idofuser").innerHTML;\\n\\t\\t\\t\\tdetails["send_id"] = send_id;\\n                                var sender_name = document.getElementById("user").innerHTML;\\n        \\t\\t\\tdetails["sender_name"] = sender_name;\\n\\t\\t\\t\\tanimatemsg("Message Sent!"); \\t\\n                                if( tag != "" )\\n                                {\\n                                        xhr.open("POST",conn+"://"+ip+":"+port+"/ITWSII_StudentsMail/main/send",true);\\n\\t\\t\\t\\t\\txhr.setRequestHeader("Content-Type", "application/json;charset=UTF-8");\\n                                        xhr.send(JSON.stringify(details));\\n                                        xhr.onreadystatechange = function(){\\n                                                if( xhr.readyState == 4 && xhr.status == 200 )\\n                                                {\\n\\t\\t\\t\\t\\t\\t\\t$("#composer").fadeOut("fast");\\n                                                \\tsa.className = "down";\\n\\t\\t\\t\\t\\t\\t\\tgettagcount();\\n\\t\\t\\t                                e = document.getElementById("inboxme");\\n                                   \\t\\t\\t      $("#close").fadeOut("fast");\\n                                              \\t\\t      $("#sender").fadeOut("fast"); \\n                                           \\t\\t      $("#composer").fadeOut("fast");\\n                                \\n                             \\t\\t\\t       e.className = "sideactive";\\n                            \\t\\t\\t       $("#inboxer").fadeIn("slow");\\n    \\t                  \\t\\t\\t       sa = e;\\t\\n\\t\\t\\t\\t\\t\\t}\\n                                        }\\n                                }\\n\\t\\t\\t\\t}\\n                                else\\n                               \\t{\\n                                                animatemsg("Receivers field can not be left empty");\\n                                }\\n                \\t});\\t\\n\\t\\t\\tfunction showinbox()\\n\\t\\t\\t{\\n\\t\\t\\t\\tsa.className = "down";\\n\\t\\t\\t\\tdivname =  sa.id.slice(0,-2);\\n                                e = document.getElementById("inboxme");\\n                                document.getElementById("maildetails").style.display = "none";\\n\\t\\t\\t\\tif ( divname == "compose" )\\n                                {\\n                                         $("#close").fadeOut("fast");\\n                                                 $("#sender").fadeOut("fast"); \\n                                                 $("#composer").fadeOut("fast");\\n\\n                                }\\n                                else if( divname == "drafts" )\\n                                {\\n\\t\\t\\t\\t       document.getElementById("draftser").style.display = "none"; \\t\\n\\t\\t\\t\\t       $("#draftdelete").fadeOut("fast");\\n                                }\\n\\t\\t\\t\\telse if( divname == "sent" )\\n                                {     document.getElementById("senter").style.display = "none";     \\n                               \\t      $("#draftdelete").fadeOut("fast");\\n\\t\\t\\t\\t} \\n                                $("#"+divname+"er").fadeOut("fast");\\n                                e.className = "sideactive";\\n                                $("#inboxer").fadeIn("slow");\\n\\n                                sa = e;\\n                                \\n                                var xhr = new XMLHttpRequest();\\n                                var l = document.getElementById("idofuser").innerHTML;\\n                                xhr.open("GET",conn+"://"+ip+":"+port+"/ITWSII_StudentsMail/main/show?id="+l,true);\\n                                xhr.send();\\n\\n                                xhr.onreadystatechange = function()\\n                                {\\n                                        if( xhr.readyState == 4 && xhr.status == 200 )\\n                                        {       \\n                                                obj=JSON.parse(xhr.responseText);\\n                                                jQuery.each(obj, function(key, value) {\\n                                                            //console.log(key, value);\\n                                                            tmpobj = value;\\n                                                            jQuery.each(tmpobj,function(key,value){\\n                                                                    if (key=="tag"&&value=="Academics"){\\n                                                                         console.log(key,value);\\n                                                                         }\\n                                                                    });\\n\\t\\t\\t\\t           });\\n                                \\t}       \\n\\t\\t\\t\\t}\\n\\t\\t\\t}\\n\\t\\t\\t$("#inboxme").click(function(){\\tshowinbox(); });\\n\\t\\t\\n\\n\\t\\t\\t$("#draftsme").click(function(){\\n               \\t\\t\\t       \\n\\t\\t\\t\\t       sa.className = "down";\\n                              \\t       e = document.getElementById("draftsme");\\n                               \\t       document.getElementById("search").value = "";\\n\\t                               $("#searchbox").hide();\\n\\n\\t\\t\\t\\t       divname =  sa.id.slice(0,-2);\\n                         \\t       if ( divname == "compose" )\\n                                \\t{\\n\\t\\t\\t\\t\\t\\t $("#close").fadeOut("fast");\\n\\t\\t\\t\\t\\t\\t $("#sender").fadeOut("fast"); \\n\\t\\t\\t\\t\\t\\t $("#composer").fadeOut("fast");\\n\\t\\n\\t\\t\\t\\t\\t}\\n\\t\\t\\t\\t\\t else if( divname == "sent" )\\n\\t                                      document.getElementById("senter").style.display = "none";     \\n\\t\\t\\t\\t\\telse if( divname == "inbox" )\\n\\t\\t\\t\\t\\t{\\n\\t\\t\\t\\t\\t     document.getElementById("inboxer").style.display = "none";\\n\\t\\t\\t\\t\\t     document.getElementById("maildetails").style.display = "none";\\n\\n\\t\\t\\t\\t\\t}\\n\\t\\t\\t\\t\\t$("#"+divname+"er").fadeOut("slow");\\n \\n                      \\t                e.className = "sideactive";\\n        \\t            \\t\\t$("#draftser").fadeIn("slow");\\n\\t\\t\\t\\t\\tsa = e;\\n\\t\\t\\t\\t\\n\\t\\t\\t\\t\\t$("#draftdelete").fadeIn("slow");\\n\\t\\t\\t\\t\\trefreshdraftmails();\\n\\t\\t\\t});\\n\\t\\t\\t$("#sentme").click(function(){\\n\\n\\t\\t\\t\\tdocument.getElementById("search").value = "";\\n\\t                        $("#searchbox").hide();\\n\\t\\n\\t\\t\\t\\tsa.className = "down";\\n                                e = document.getElementById("sentme");\\n                                divname =  sa.id.slice(0,-2);   \\n\\t\\t\\t\\tif ( divname == "compose" )\\n                                {\\n                                         $("#close").fadeOut("fast");\\n                                                 $("#sender").fadeOut("fast"); \\n                                                 $("#composer").fadeOut("fast");\\n\\n                                }\\n                             \\telse if( divname == "sent" )\\n                                      document.getElementById("senter").style.display = "none";     \\n\\t\\t\\t\\telse if(divname == "inbox" )\\n\\t\\t\\t\\t{\\t\\n\\t\\t\\t\\t     document.getElementById("inboxer").style.display = "none";\\n\\t\\t\\t\\t     document.getElementById("maildetails").style.display = "none";\\n\\t\\t\\t\\t}\\t\\n\\t\\t\\t\\t$("#draftdelete").fadeIn("fast");\\n\\t\\t\\t        $("#"+divname+"er").fadeOut("fast");\\n                           \\n\\t\\t\\t        e.className = "sideactive";\\n                                $("#senter").fadeIn("slow");\\n                                sa = e;\\n                               \\t\\n\\t\\t\\t\\tdocument.getElementById("senter").style.display = "block";\\n        \\t                document.getElementById("Sentmaildetails").style.display = "none";             \\n\\t \\n\\t\\t\\t\\trefreshsentmails();\\n\\t\\t\\t});\\n\\t\\t\\t$("#closeS").click(function(){\\n\\t\\t\\t\\tdocument.getElementById("Sentmaildetails").style.display = "none";\\n\\t\\t\\t\\tdocument.getElementById("senter").style.display = "block";\\n\\t\\t\\t});\\n\\t\\t});\\n\\t</script>\\n\\n</body>\\n</html>\\n\', escape=False)'
p108
sI31
S'response.write(\'" width="30px" height="30px"></img>\\n\\t\\t\\t\\t\\t<li id="draftsme" class="down" onclick="makesideactive(this)" ><a >Drafts</a></li>\\n\\t\\t\\t\\t\\t<img id="important" src="\', escape=False)'
p109
ssg83
S'()'
p110
sg85
S'<module>'
p111
sasS'pyver'
p112
S'Python 2.7.3: /usr/bin/python (prefix: /usr)'
p113
sS'session'
p114
g57
(S's<\x01\x00\x00<div><table><tr><td style="font-weight:bold;vertical-align:top;">last_orderby</td><td style="vertical-align:top;">:</td><td><div>None</div></td></tr><tr><td style="font-weight:bold;vertical-align:top;">last_query</td><td style="vertical-align:top;">:</td><td><div>db.attachments.id&gt;0</div></td></tr></table></div>'
tRp115
sS'etype'
p116
S"<type 'exceptions.NameError'>"
p117
sS'date'
p118
S'Mon Apr 14 23:19:08 2014'
p119
sS'response'
p120
g57
(S's&\x17\x00\x00<div><table><tr><td style="font-weight:bold;vertical-align:top;">body</td><td style="vertical-align:top;">:</td><td><div>&lt;cStringIO.StringO object at 0x7f34c80ac420&gt;</div></td></tr><tr><td style="font-weight:bold;vertical-align:top;">cookies</td><td style="vertical-align:top;">:</td><td><div><table><tr><td style="font-weight:bold;vertical-align:top;">session_id_itwsii_studentsmail</td><td style="vertical-align:top;">:</td><td><div>127.0.0.1-5305879a-8382-420c-94cf-1d38c2df4ada<table><tr><td style="font-weight:bold;vertical-align:top;">comment</td><td style="vertical-align:top;">:</td><td><div></div></td></tr><tr><td style="font-weight:bold;vertical-align:top;">domain</td><td style="vertical-align:top;">:</td><td><div></div></td></tr><tr><td style="font-weight:bold;vertical-align:top;">expires</td><td style="vertical-align:top;">:</td><td><div></div></td></tr><tr><td style="font-weight:bold;vertical-align:top;">httponly</td><td style="vertical-align:top;">:</td><td><div></div></td></tr><tr><td style="font-weight:bold;vertical-align:top;">max-age</td><td style="vertical-align:top;">:</td><td><div></div></td></tr><tr><td style="font-weight:bold;vertical-align:top;">path</td><td style="vertical-align:top;">:</td><td><div>/</div></td></tr><tr><td style="font-weight:bold;vertical-align:top;">secure</td><td style="vertical-align:top;">:</td><td><div></div></td></tr><tr><td style="font-weight:bold;vertical-align:top;">version</td><td style="vertical-align:top;">:</td><td><div></div></td></tr></table></div></td></tr></table></div></td></tr><tr><td style="font-weight:bold;vertical-align:top;">delimiters</td><td style="vertical-align:top;">:</td><td><div><table><tr><td><div>{{</div></td></tr><tr><td><div>}}</div></td></tr></table></div></td></tr><tr><td style="font-weight:bold;vertical-align:top;">files</td><td style="vertical-align:top;">:</td><td><div><table></table></div></td></tr><tr><td style="font-weight:bold;vertical-align:top;">flash</td><td style="vertical-align:top;">:</td><td><div></div></td></tr><tr><td style="font-weight:bold;vertical-align:top;">generic_patterns</td><td style="vertical-align:top;">:</td><td><div><table><tr><td><div>*</div></td></tr></table></div></td></tr><tr><td style="font-weight:bold;vertical-align:top;">headers</td><td style="vertical-align:top;">:</td><td><div><table><tr><td style="font-weight:bold;vertical-align:top;">X-Powered-By</td><td style="vertical-align:top;">:</td><td><div>web2py</div></td></tr></table></div></td></tr><tr><td style="font-weight:bold;vertical-align:top;">menu</td><td style="vertical-align:top;">:</td><td><div><table></table></div></td></tr><tr><td style="font-weight:bold;vertical-align:top;">meta</td><td style="vertical-align:top;">:</td><td><div><table></table></div></td></tr><tr><td style="font-weight:bold;vertical-align:top;">models_to_run</td><td style="vertical-align:top;">:</td><td><div><table><tr><td><div>^\\w+\\.py$</div></td></tr><tr><td><div>^main/\\w+\\.py$</div></td></tr><tr><td><div>^main/mails/\\w+\\.py$</div></td></tr></table></div></td></tr><tr><td style="font-weight:bold;vertical-align:top;">postprocessing</td><td style="vertical-align:top;">:</td><td><div><table></table></div></td></tr><tr><td style="font-weight:bold;vertical-align:top;">session_client</td><td style="vertical-align:top;">:</td><td><div>127.0.0.1</div></td></tr><tr><td style="font-weight:bold;vertical-align:top;">session_cookie_compression_level</td><td style="vertical-align:top;">:</td><td><div>None</div></td></tr><tr><td style="font-weight:bold;vertical-align:top;">session_cookie_expires</td><td style="vertical-align:top;">:</td><td><div>None</div></td></tr><tr><td style="font-weight:bold;vertical-align:top;">session_cookie_key</td><td style="vertical-align:top;">:</td><td><div>None</div></td></tr><tr><td style="font-weight:bold;vertical-align:top;">session_data_name</td><td style="vertical-align:top;">:</td><td><div>session_data_itwsii_studentsmail</div></td></tr><tr><td style="font-weight:bold;vertical-align:top;">session_file</td><td style="vertical-align:top;">:</td><td><div>&lt;open file &#x27;/home/hitesh96db/Documents/web2py/applications/ITWSII_StudentsMail/sessions/127.0.0.1-5305879a-8382-420c-94cf-1d38c2df4ada&#x27;, mode &#x27;rb+&#x27; at 0x7f34c44f1a50&gt;</div></td></tr><tr><td style="font-weight:bold;vertical-align:top;">session_filename</td><td style="vertical-align:top;">:</td><td><div>/home/hitesh96db/Documents/web2py/applications/ITWSII_StudentsMail/sessions/127.0.0.1-5305879a-8382-420c-94cf-1d38c2df4ada</div></td></tr><tr><td style="font-weight:bold;vertical-align:top;">session_hash</td><td style="vertical-align:top;">:</td><td><div>997f10996ad9d1ec3797ec4a7e052167</div></td></tr><tr><td style="font-weight:bold;vertical-align:top;">session_id</td><td style="vertical-align:top;">:</td><td><div>127.0.0.1-5305879a-8382-420c-94cf-1d38c2df4ada</div></td></tr><tr><td style="font-weight:bold;vertical-align:top;">session_id_name</td><td style="vertical-align:top;">:</td><td><div>session_id_itwsii_studentsmail</div></td></tr><tr><td style="font-weight:bold;vertical-align:top;">session_locked</td><td style="vertical-align:top;">:</td><td><div>True</div></td></tr><tr><td style="font-weight:bold;vertical-align:top;">session_masterapp</td><td style="vertical-align:top;">:</td><td><div>ITWSII_StudentsMail</div></td></tr><tr><td style="font-weight:bold;vertical-align:top;">session_new</td><td style="vertical-align:top;">:</td><td><div>False</div></td></tr><tr><td style="font-weight:bold;vertical-align:top;">session_storage_type</td><td style="vertical-align:top;">:</td><td><div>file</div></td></tr><tr><td style="font-weight:bold;vertical-align:top;">status</td><td style="vertical-align:top;">:</td><td><div>200</div></td></tr><tr><td style="font-weight:bold;vertical-align:top;">view</td><td style="vertical-align:top;">:</td><td><div>main/mails.html</div></td></tr></table></div>'
tRp121
sS'locals'
p122
(dp123
S'Service'
p124
S"<class 'gluon.tools.Service'>"
p125
sS'OBJECT'
p126
S"<class 'gluon.html.OBJECT'>"
p127
sS'SQLDB'
p128
S"<class 'gluon.dal.DAL'>"
p129
sg114
S"<Storage {'last_orderby': None, '_formkey[un/cre...orage {'version': '28.0', 'name': 'Firefox'}>}>}>"
p130
sS'LINK'
p131
S"<class 'gluon.html.LINK'>"
p132
sS'BR'
p133
S"<class 'gluon.html.BR'>"
p134
sS'local_import'
p135
S'<function <lambda>>'
p136
sS'OPTGROUP'
p137
S"<class 'gluon.html.OPTGROUP'>"
p138
sS'__package__'
p139
S'None'
p140
sS'PRE'
p141
S"<class 'gluon.html.PRE'>"
p142
sS'IS_INT_IN_RANGE'
p143
S"<class 'gluon.validators.IS_INT_IN_RANGE'>"
p144
sS'IS_LOWER'
p145
S"<class 'gluon.validators.IS_LOWER'>"
p146
sS'IS_STRONG'
p147
S"<class 'gluon.validators.IS_STRONG'>"
p148
sS'cache'
p149
S'<gluon.cache.Cache object>'
p150
sS'IS_IN_DB'
p151
S"<class 'gluon.validators.IS_IN_DB'>"
p152
sS'TAG'
p153
S'<gluon.html.__TAG__ object>'
p154
sS'SQLField'
p155
S"<class 'gluon.dal.Field'>"
p156
sS'mail'
p157
S'<gluon.tools.Mail object>'
p158
sS'BODY'
p159
S"<class 'gluon.html.BODY'>"
p160
sS'IS_DATE_IN_RANGE'
p161
S"<class 'gluon.validators.IS_DATE_IN_RANGE'>"
p162
sS'IFRAME'
p163
S"<class 'gluon.html.IFRAME'>"
p164
sS'URL'
p165
S'<function URL>'
p166
sS'__file__'
p167
S"'/home/hitesh96db/Documents/web2py/applications/ITWSII_StudentsMail/views/main/mails.html'"
p168
sS'db'
p169
S'<DAL uri="sqlite://storage.sqlite">'
p170
sS'auth'
p171
S'<gluon.tools.Auth object>'
p172
sS'P'
S"<class 'gluon.html.P'>"
p173
sS'TFOOT'
p174
S"<class 'gluon.html.TFOOT'>"
p175
sS'XHTML'
p176
S"<class 'gluon.html.XHTML'>"
p177
sS'ON'
p178
S'True'
p179
sS'OL'
p180
S"<class 'gluon.html.OL'>"
p181
sS'TEXTAREA'
p182
S"<class 'gluon.html.TEXTAREA'>"
p183
sS'MENU'
p184
S"<class 'gluon.html.MENU'>"
p185
sS'IS_IMAGE'
p186
S"<class 'gluon.validators.IS_IMAGE'>"
p187
sS'EM'
p188
S"<class 'gluon.html.EM'>"
p189
sS'CODE'
p190
S"<class 'gluon.html.CODE'>"
p191
sS'HTTP'
p192
S"<class 'gluon.http.HTTP'>"
p193
sS'HR'
p194
S"<class 'gluon.html.HR'>"
p195
sS'IS_DATETIME'
p196
S"<class 'gluon.validators.IS_DATETIME'>"
p197
sS'STYLE'
p198
S"<class 'gluon.html.STYLE'>"
p199
sS'LABEL'
p200
S"<class 'gluon.html.LABEL'>"
p201
sS'CLEANUP'
p202
S"<class 'gluon.validators.CLEANUP'>"
p203
sS'plugins'
p204
S'<gluon.tools.PluginManager object>'
p205
sS'SELECT'
p206
S"<class 'gluon.html.SELECT'>"
p207
sS'use_janrain'
p208
S'<function use_janrain>'
p209
sS'CENTER'
p210
S"<class 'gluon.html.CENTER'>"
p211
sS'prettydate'
p212
S'<function prettydate>'
p213
sS'Crud'
p214
S"<class 'gluon.tools.Crud'>"
p215
sS'Auth'
p216
S"<class 'gluon.tools.Auth'>"
p217
sS'__builtins__'
p218
S"{'ArithmeticError': <type 'exceptions.ArithmeticError'>, 'AssertionError': <type 'exceptions.AssertionError'>, 'AttributeError': <type 'exceptions.AttributeError'>, 'BaseException': <type 'exceptions.BaseException'>, 'BufferError': <type 'exceptions.BufferError'>, 'BytesWarning': <type 'exceptions.BytesWarning'>, 'DeprecationWarning': <type 'exceptions.DeprecationWarning'>, 'EOFError': <type 'exceptions.EOFError'>, 'Ellipsis': Ellipsis, 'EnvironmentError': <type 'exceptions.EnvironmentError'>, ...}"
p219
sS'HTML'
p220
S"<class 'gluon.html.HTML'>"
p221
sS'SQLFORM'
p222
S"<class 'gluon.sqlhtml.SQLFORM'>"
p223
sS'LOAD'
p224
S'<function LOAD>'
p225
sS'redirect'
p226
S'<function redirect>'
p227
sS'FIELDSET'
p228
S"<class 'gluon.html.FIELDSET'>"
p229
sS'IS_EQUAL_TO'
p230
S"<class 'gluon.validators.IS_EQUAL_TO'>"
p231
sS'embed64'
p232
S'<function embed64>'
p233
sS'IS_LIST_OF'
p234
S"<class 'gluon.validators.IS_LIST_OF'>"
p235
sS'INPUT'
p236
S"<class 'gluon.html.INPUT'>"
p237
sS'EMBED'
p238
S"<class 'gluon.html.EMBED'>"
p239
sS'H2'
p240
S"<class 'gluon.html.H2'>"
p241
sS'H3'
p242
S"<class 'gluon.html.H3'>"
p243
sS'BUTTON'
p244
S"<class 'gluon.html.BUTTON'>"
p245
sS'H1'
p246
S"<class 'gluon.html.H1'>"
p247
sS'H6'
p248
S"<class 'gluon.html.H6'>"
p249
sS'H4'
p250
S"<class 'gluon.html.H4'>"
p251
sS'H5'
p252
S"<class 'gluon.html.H5'>"
p253
sS'UL'
p254
S"<class 'gluon.html.UL'>"
p255
sS'IS_UPPER'
p256
S"<class 'gluon.validators.IS_UPPER'>"
p257
sS'xmlescape'
p258
S'<function xmlescape>'
p259
sS'IS_TIME'
p260
S"<class 'gluon.validators.IS_TIME'>"
p261
sS'OPTION'
p262
S"<class 'gluon.html.OPTION'>"
p263
sS'TITLE'
p264
S"<class 'gluon.html.TITLE'>"
p265
sS'CRYPT'
p266
S"<class 'gluon.validators.CRYPT'>"
p267
sS'IS_EMPTY_OR'
p268
S"<class 'gluon.validators.IS_EMPTY_OR'>"
p269
sS'MARKMIN'
p270
S"<class 'gluon.html.MARKMIN'>"
p271
sS'__name__'
p272
S"'__restricted__'"
p273
sS'STRONG'
p274
S"<class 'gluon.html.STRONG'>"
p275
sS'COL'
p276
S"<class 'gluon.html.COL'>"
p277
sS'service'
p278
S'<gluon.tools.Service object>'
p279
sS'SCRIPT'
p280
S"<class 'gluon.html.SCRIPT'>"
p281
sS'TABLE'
p282
S"<class 'gluon.html.TABLE'>"
p283
sS'IS_IPV4'
p284
S"<class 'gluon.validators.IS_IPV4'>"
p285
sS'IS_LENGTH'
p286
S"<class 'gluon.validators.IS_LENGTH'>"
p287
sS'IS_IPV6'
p288
S"<class 'gluon.validators.IS_IPV6'>"
p289
sS'XML'
p290
S"<class 'gluon.html.XML'>"
p291
sS'B'
S"<class 'gluon.html.B'>"
p292
sS'IMG'
p293
S"<class 'gluon.html.IMG'>"
p294
sS'SQLTABLE'
p295
S"<class 'gluon.sqlhtml.SQLTABLE'>"
p296
sS'IS_MATCH'
p297
S"<class 'gluon.validators.IS_MATCH'>"
p298
sS'IS_ALPHANUMERIC'
p299
S"<class 'gluon.validators.IS_ALPHANUMERIC'>"
p300
sS'SPAN'
p301
S"<class 'gluon.html.SPAN'>"
p302
sS'IS_JSON'
p303
S"<class 'gluon.validators.IS_JSON'>"
p304
sS'IS_IPADDRESS'
p305
S"<class 'gluon.validators.IS_IPADDRESS'>"
p306
sS'IS_SLUG'
p307
S"<class 'gluon.validators.IS_SLUG'>"
p308
sS'BEAUTIFY'
p309
S"<class 'gluon.html.BEAUTIFY'>"
p310
sS'META'
p311
S"<class 'gluon.html.META'>"
p312
sS'IS_DATE'
p313
S"<class 'gluon.validators.IS_DATE'>"
p314
sS'IS_EMAIL'
p315
S"<class 'gluon.validators.IS_EMAIL'>"
p316
sS'IS_NOT_EMPTY'
p317
S"<class 'gluon.validators.IS_NOT_EMPTY'>"
p318
sS'IS_FLOAT_IN_RANGE'
p319
S"<class 'gluon.validators.IS_FLOAT_IN_RANGE'>"
p320
sS'TBODY'
p321
S"<class 'gluon.html.TBODY'>"
p322
sS'CAT'
p323
S"<class 'gluon.html.CAT'>"
p324
sS'Field'
p325
S"<class 'gluon.dal.Field'>"
p326
sS'IS_LIST_OF_EMAILS'
p327
S"<class 'gluon.validators.IS_LIST_OF_EMAILS'>"
p328
sS'DIV'
p329
S"<class 'gluon.html.DIV'>"
p330
sS'LEGEND'
p331
S"<class 'gluon.html.LEGEND'>"
p332
sS'COLGROUP'
p333
S"<class 'gluon.html.COLGROUP'>"
p334
sS'DAL'
p335
S"<class 'gluon.dal.DAL'>"
p336
sS'TT'
p337
S"<class 'gluon.html.TT'>"
p338
sS'TR'
p339
S"<class 'gluon.html.TR'>"
p340
sS'LI'
p341
S"<class 'gluon.html.LI'>"
p342
sS'TH'
p343
S"<class 'gluon.html.TH'>"
p344
sS'TD'
p345
S"<class 'gluon.html.TD'>"
p346
sS'PluginManager'
p347
S"<class 'gluon.tools.PluginManager'>"
p348
sS'IS_URL'
p349
S"<class 'gluon.validators.IS_URL'>"
p350
sS'A'
S"<class 'gluon.html.A'>"
p351
sS'HEAD'
p352
S"<class 'gluon.html.HEAD'>"
p353
sS'IS_DATETIME_IN_RANGE'
p354
S"<class 'gluon.validators.IS_DATETIME_IN_RANGE'>"
p355
sS'FORM'
p356
S"<class 'gluon.html.FORM'>"
p357
sS'I'
S"<class 'gluon.html.I'>"
p358
sS'crud'
p359
S'<gluon.tools.Crud object>'
p360
sS'IS_NOT_IN_DB'
p361
S"<class 'gluon.validators.IS_NOT_IN_DB'>"
p362
sg120
S"<Storage {'body': <cStringIO.StringO object at 0...> at 0x7f34ec267e60>, 'view': 'main/mails.html'}>"
p363
sS'THEAD'
p364
S"<class 'gluon.html.THEAD'>"
p365
sS'ANY_OF'
p366
S"<class 'gluon.validators.ANY_OF'>"
p367
sS'IS_NULL_OR'
p368
S"<class 'gluon.validators.IS_EMPTY_OR'>"
p369
sg56
S"<Storage {'_vars': None, 'function': 'mails', 'c...ments/web2py/applications/ITWSII_StudentsMail/'}>"
p370
sS'IS_EXPR'
p371
S"<class 'gluon.validators.IS_EXPR'>"
p372
sS'T'
S'<gluon.languages.translator object>'
p373
sS'IS_IN_SET'
p374
S"<class 'gluon.validators.IS_IN_SET'>"
p375
sS'IS_UPLOAD_FILENAME'
p376
S"<class 'gluon.validators.IS_UPLOAD_FILENAME'>"
p377
sS'IS_DECIMAL_IN_RANGE'
p378
S"<class 'gluon.validators.IS_DECIMAL_IN_RANGE'>"
p379
sssS'traceback'
p380
S'Traceback (most recent call last):\n  File "/home/hitesh96db/Documents/web2py/gluon/restricted.py", line 220, in restricted\n    exec ccode in environment\n  File "/home/hitesh96db/Documents/web2py/applications/ITWSII_StudentsMail/views/main/mails.html", line 40, in <module>\n    </div>\nNameError: name \'form\' is not defined\n'
p381
s.